((cscenesim.objects.gso
GSO
p1
cscenesim.objects.pso
RBSO
p2
g1
g2
g1
g2
g1
g2
g1
g2
g1
g2
g1
g2
g1
g2
g1
g2
g1
g2
cscenesim.objects.sso
SSO
p3
t((dp4
S'scale'
p5
clibpanda
LVecBase3f
p6
(F1
F1
F1
tRp7
sS'name'
p8
S'block0-graphics'
p9
sS'color'
p10
clibpanda
LVecBase4f
p11
(F1
F1
F0
F1
tRp12
sS'quat'
p13
clibpanda
LQuaternionf
p14
(F1
F0
F0
F0
tRp15
sS'pos'
p16
clibpanda
LPoint3f
p17
(F0
F0
F0
tRp18
sS'model'
p19
S'yellow_block.egg'
p20
s(dp21
g5
g6
(F0.20000000298023224
F0.60000002384185791
F0.19999997317790985
tRp22
sg8
S'block0-physics'
p23
sg13
g14
(F0.70710676908493042
F0
F0
F0.7071068286895752
tRp24
sS'linear_velocity'
p25
clibpanda
LVector3f
p26
(F0
F0
F0
tRp27
sS'gravity'
p28
g26
(F0
F0
F0
tRp29
sS'friction'
p30
F0.89442718029022217
sg16
g17
(F0.10000000149011612
F0.01666666753590107
F0.10000000149011612
tRp31
sS'shape'
p32
S'Box'
p33
sS'deactivation_enabled'
p34
I01
sS'mass'
p35
F4.0799994468688965
sS'angular_velocity'
p36
g26
(F0
F0
F0
tRp37
sS'restitution'
p38
F0
s(dp39
g5
g6
(F1
F1
F1
tRp40
sg8
S'block1-graphics'
p41
sg10
g11
(F1
F1
F0
F1
tRp42
sg13
g14
(F1
F0
F0
F0
tRp43
sg16
g17
(F0
F0
F0
tRp44
sg19
g20
s(dp45
g5
g6
(F0.20000000298023224
F0.60000002384185791
F0.20000000298023224
tRp46
sg8
S'block1-physics'
p47
sg13
g14
(F1
F0
F0
F0
tRp48
sg25
g26
(F0
F0
F0
tRp49
sg28
g26
(F0
F0
F0
tRp50
sg30
F0.89442718029022217
sg16
g17
(F0.18333333730697632
F-0.05000000074505806
F0.30000001192092896
tRp51
sg32
S'Box'
p52
sg34
I01
sg35
F4.0800004005432129
sg36
g26
(F0
F0
F0
tRp53
sg38
F0
s(dp54
g5
g6
(F1
F1
F1
tRp55
sg8
S'block2-graphics'
p56
sg10
g11
(F1
F0
F0
F1
tRp57
sg13
g14
(F1
F0
F0
F0
tRp58
sg16
g17
(F0
F0
F0
tRp59
sg19
S'red_block.egg'
p60
s(dp61
g5
g6
(F0.20000000298023224
F0.60000002384185791
F0.20000000298023224
tRp62
sg8
S'block2-physics'
p63
sg13
g14
(F1
F0
F0
F0
tRp64
sg25
g26
(F0
F0
F0
tRp65
sg28
g26
(F0
F0
F0
tRp66
sg30
F0.89442718029022217
sg16
g17
(F-0.033333335071802139
F-0.033333335071802139
F0.30000001192092896
tRp67
sg32
S'Box'
p68
sg34
I01
sg35
F4.0800004005432129
sg36
g26
(F0
F0
F0
tRp69
sg38
F0
s(dp70
g5
g6
(F1
F1
F1
tRp71
sg8
S'block3-graphics'
p72
sg10
g11
(F1
F0
F0
F1
tRp73
sg13
g14
(F1
F0
F0
F0
tRp74
sg16
g17
(F0
F0
F0
tRp75
sg19
g60
s(dp76
g5
g6
(F0.20000000298023224
F0.60000002384185791
F0.20000000298023224
tRp77
sg8
S'block3-physics'
p78
sg13
g14
(F1
F0
F0
F0
tRp79
sg25
g26
(F0
F0
F0
tRp80
sg28
g26
(F0
F0
F0
tRp81
sg30
F0.89442718029022217
sg16
g17
(F0.21666666865348816
F0.15000000596046448
F0.5
tRp82
sg32
S'Box'
p83
sg34
I01
sg35
F4.0800004005432129
sg36
g26
(F0
F0
F0
tRp84
sg38
F0
s(dp85
g5
g6
(F1
F1
F1
tRp86
sg8
S'block4-graphics'
p87
sg10
g11
(F1
F0
F0
F1
tRp88
sg13
g14
(F1
F0
F0
F0
tRp89
sg16
g17
(F0
F0
F0
tRp90
sg19
g60
s(dp91
g5
g6
(F0.20000000298023224
F0.60000002384185791
F0.20000000298023224
tRp92
sg8
S'block4-physics'
p93
sg13
g14
(F1
F0
F0
F0
tRp94
sg25
g26
(F0
F0
F0
tRp95
sg28
g26
(F0
F0
F0
tRp96
sg30
F0.89442718029022217
sg16
g17
(F-0.066666670143604279
F-0.033333335071802139
F0.5
tRp97
sg32
S'Box'
p98
sg34
I01
sg35
F4.0800004005432129
sg36
g26
(F0
F0
F0
tRp99
sg38
F0
s(dp100
g5
g6
(F1
F1
F1
tRp101
sg8
S'block5-graphics'
p102
sg10
g11
(F1
F0
F0
F1
tRp103
sg13
g14
(F1
F0
F0
F0
tRp104
sg16
g17
(F0
F0
F0
tRp105
sg19
g60
s(dp106
g5
g6
(F0.20000000298023224
F0.60000002384185791
F0.20000000298023224
tRp107
sg8
S'block5-physics'
p108
sg13
g14
(F1
F0
F0
F0
tRp109
sg25
g26
(F0
F0
F0
tRp110
sg28
g26
(F0
F0
F0
tRp111
sg30
F0.89442718029022217
sg16
g17
(F0.1666666567325592
F0.28333333134651184
F0.69999998807907104
tRp112
sg32
S'Box'
p113
sg34
I01
sg35
F4.0800004005432129
sg36
g26
(F0
F0
F0
tRp114
sg38
F0
s(dp115
g5
g6
(F1
F1
F1
tRp116
sg8
S'block6-graphics'
p117
sg10
g11
(F1
F1
F0
F1
tRp118
sg13
g14
(F1
F0
F0
F0
tRp119
sg16
g17
(F0
F0
F0
tRp120
sg19
g20
s(dp121
g5
g6
(F0.19999997317790985
F0.60000002384185791
F0.20000000298023224
tRp122
sg8
S'block6-physics'
p123
sg13
g14
(F0.70710676908493042
F0.7071068286895752
F0
F0
tRp124
sg25
g26
(F0
F0
F0
tRp125
sg28
g26
(F0
F0
F0
tRp126
sg30
F0.89442718029022217
sg16
g17
(F-0.05000000074505806
F-0.11666665971279144
F0.89999997615814209
tRp127
sg32
S'Box'
p128
sg34
I01
sg35
F4.0799994468688965
sg36
g26
(F0
F0
F0
tRp129
sg38
F0
s(dp130
g5
g6
(F1
F1
F1
tRp131
sg8
S'block7-graphics'
p132
sg10
g11
(F1
F1
F0
F1
tRp133
sg13
g14
(F1
F0
F0
F0
tRp134
sg16
g17
(F0
F0
F0
tRp135
sg19
g20
s(dp136
g5
g6
(F0.19999997317790985
F0.60000002384185791
F0.20000000298023224
tRp137
sg8
S'block7-physics'
p138
sg13
g14
(F0.70710676908493042
F0.7071068286895752
F0
F0
tRp139
sg25
g26
(F0
F0
F0
tRp140
sg28
g26
(F0
F0
F0
tRp141
sg30
F0.89442718029022217
sg16
g17
(F-0.13333334028720856
F0.23333331942558289
F0.89999997615814209
tRp142
sg32
S'Box'
p143
sg34
I01
sg35
F4.0799994468688965
sg36
g26
(F0
F0
F0
tRp144
sg38
F0
s(dp145
g5
g6
(F1
F1
F1
tRp146
sg8
S'block8-graphics'
p147
sg10
g11
(F1
F1
F0
F1
tRp148
sg13
g14
(F1
F0
F0
F0
tRp149
sg16
g17
(F0
F0
F0
tRp150
sg19
g20
s(dp151
g5
g6
(F0.20000000298023224
F0.60000002384185791
F0.20000000298023224
tRp152
sg8
S'block8-physics'
p153
sg13
g14
(F1
F0
F0
F0
tRp154
sg25
g26
(F0
F0
F0
tRp155
sg28
g26
(F0
F0
F0
tRp156
sg30
F0.89442718029022217
sg16
g17
(F0.23333331942558289
F0.15000000596046448
F0.89999997615814209
tRp157
sg32
S'Box'
p158
sg34
I01
sg35
F4.0800004005432129
sg36
g26
(F0
F0
F0
tRp159
sg38
F0
s(dp160
g5
g6
(F1
F1
F1
tRp161
sg8
S'block9-graphics'
p162
sg10
g11
(F1
F0
F0
F1
tRp163
sg13
g14
(F1
F0
F0
F0
tRp164
sg16
g17
(F0
F0
F0
tRp165
sg19
g60
s(dp166
g5
g6
(F0.20000000298023224
F0.60000002384185791
F0.20000000298023224
tRp167
sg8
S'block9-physics'
p168
sg13
g14
(F1
F0
F0
F0
tRp169
sg25
g26
(F0
F0
F0
tRp170
sg28
g26
(F0
F0
F0
tRp171
sg30
F0.89442718029022217
sg16
g17
(F-0.11666665971279144
F-0.10000000149011612
F1.2999999523162842
tRp172
sg32
S'Box'
p173
sg34
I01
sg35
F4.0800004005432129
sg36
g26
(F0
F0
F0
tRp174
sg38
F0
s(dp175
g13
g14
(F1
F0
F0
F0
tRp176
sg5
g6
(F1
F1
F1
tRp177
sg16
g17
(F0
F0
F0
tRp178
sg8
S'tower_00343_1100001110'
p179
st(I2
I21
I4
I21
I6
I21
I8
I21
I10
I21
I12
I21
I14
I21
I16
I21
I18
I21
I20
I21
I0
ttp180
.