(lp0
(dp1
S'color1_name'
p2
NsS'video_fb'
p3
I01
sS'text_fb'
p4
I01
sS'color1'
p5
NsS'color0'
p6
NsS'color0_name'
p7
NsS'index'
p8
I0
sS'angle'
p9
cnumpy.core.multiarray
scalar
p10
(cnumpy
dtype
p11
(S'i8'
p12
I0
I1
tp13
Rp14
(I3
S'<'
p15
NNNI-1
I-1
I0
tp16
bS'A\x00\x00\x00\x00\x00\x00\x00'
p17
tp18
Rp19
sS'stimulus'
p20
g10
(g11
(S'S14'
p21
I0
I1
tp22
Rp23
(I3
S'|'
p24
NNNI14
I1
I0
tp25
bS'stability01654'
p26
tp27
Rp28
sS'trial'
p29
I0
sS'stable'
p30
I00
sS'ttype'
p31
S'training'
p32
sS'flip_colors'
p33
g10
(g11
(S'b1'
p34
I0
I1
tp35
Rp36
(I3
S'|'
p37
NNNI-1
I-1
I0
tp38
bS'\x01'
p39
tp40
Rp41
sa(dp42
g2
Nsg3
I01
sg4
I01
sg5
Nsg6
Nsg7
Nsg8
I1
sg9
g10
(g14
S'[\x00\x00\x00\x00\x00\x00\x00'
p43
tp44
Rp45
sg20
g10
(g11
(S'S14'
p46
I0
I1
tp47
Rp48
(I3
S'|'
p49
NNNI14
I1
I0
tp50
bS'stability01967'
p51
tp52
Rp53
sg29
I1
sg30
I00
sg31
g32
sg33
g41
sa(dp54
g2
Nsg3
I01
sg4
I01
sg5
Nsg6
Nsg7
Nsg8
I2
sg9
g10
(g14
S'\x7f\x00\x00\x00\x00\x00\x00\x00'
p55
tp56
Rp57
sg20
g10
(g11
(S'S14'
p58
I0
I1
tp59
Rp60
(I3
S'|'
p61
NNNI14
I1
I0
tp62
bS'stability01023'
p63
tp64
Rp65
sg29
I2
sg30
I01
sg31
g32
sg33
g41
sa(dp66
g2
Nsg3
I01
sg4
I01
sg5
Nsg6
Nsg7
Nsg8
I3
sg9
g10
(g14
S'D\x01\x00\x00\x00\x00\x00\x00'
p67
tp68
Rp69
sg20
g10
(g11
(S'S14'
p70
I0
I1
tp71
Rp72
(I3
S'|'
p73
NNNI14
I1
I0
tp74
bS'stability01491'
p75
tp76
Rp77
sg29
I3
sg30
I00
sg31
g32
sg33
g10
(g36
S'\x00'
p78
tp79
Rp80
sa(dp81
g2
Nsg3
I01
sg4
I01
sg5
Nsg6
Nsg7
Nsg8
I4
sg9
g10
(g14
S'\x89\x00\x00\x00\x00\x00\x00\x00'
p82
tp83
Rp84
sg20
g10
(g11
(S'S14'
p85
I0
I1
tp86
Rp87
(I3
S'|'
p88
NNNI14
I1
I0
tp89
bS'stability01178'
p90
tp91
Rp92
sg29
I4
sg30
I01
sg31
g32
sg33
g80
sa(dp93
g2
Nsg3
I01
sg4
I01
sg5
Nsg6
Nsg7
Nsg8
I5
sg9
g10
(g14
S'o\x00\x00\x00\x00\x00\x00\x00'
p94
tp95
Rp96
sg20
g10
(g11
(S'S14'
p97
I0
I1
tp98
Rp99
(I3
S'|'
p100
NNNI14
I1
I0
tp101
bS'stability01893'
p102
tp103
Rp104
sg29
I5
sg30
I01
sg31
g32
sg33
g80
saS'finished training'
p105
a(dp106
g2
g10
(g11
(S'S4'
p107
I0
I1
tp108
Rp109
(I3
S'|'
p110
NNNI4
I1
I0
tp111
bS'gray'
p112
tp113
Rp114
sg3
I00
sg4
I01
sg5
g10
(g11
(S'S7'
p115
I0
I1
tp116
Rp117
(I3
S'|'
p118
NNNI7
I1
I0
tp119
bS'#808080'
p120
tp121
Rp122
sg6
g10
(g11
(S'S7'
p123
I0
I1
tp124
Rp125
(I3
S'|'
p126
NNNI7
I1
I0
tp127
bS'#00FFFF'
p128
tp129
Rp130
sg7
g10
(g11
(S'S4'
p131
I0
I1
tp132
Rp133
(I3
S'|'
p134
NNNI4
I1
I0
tp135
bS'cyan'
p136
tp137
Rp138
sg8
I7
sg9
g10
(g14
S'f\x01\x00\x00\x00\x00\x00\x00'
p139
tp140
Rp141
sg20
g10
(g11
(S'S34'
p142
I0
I1
tp143
Rp144
(I3
S'|'
p145
NNNI34
I1
I0
tp146
bS'mass-tower_00015_1010101010~10-cb1'
p147
tp148
Rp149
sg29
I0
sg30
I00
sg31
S'experiment'
p150
sg33
g41
saS'query ratio'
p151
a(dp152
g2
g10
(g11
(S'S5'
p153
I0
I1
tp154
Rp155
(I3
S'|'
p156
NNNI5
I1
I0
tp157
bS'green'
p158
tp159
Rp160
sg3
I00
sg4
I01
sg5
g10
(g11
(S'S7'
p161
I0
I1
tp162
Rp163
(I3
S'|'
p164
NNNI7
I1
I0
tp165
bS'#00FF00'
p166
tp167
Rp168
sg6
g10
(g11
(S'S7'
p169
I0
I1
tp170
Rp171
(I3
S'|'
p172
NNNI7
I1
I0
tp173
bS'#FF00FF'
p174
tp175
Rp176
sg7
g10
(g11
(S'S7'
p177
I0
I1
tp178
Rp179
(I3
S'|'
p180
NNNI7
I1
I0
tp181
bS'magenta'
p182
tp183
Rp184
sg8
I9
sg9
g10
(g14
S'O\x01\x00\x00\x00\x00\x00\x00'
p185
tp186
Rp187
sg20
g10
(g11
(S'S34'
p188
I0
I1
tp189
Rp190
(I3
S'|'
p191
NNNI34
I1
I0
tp192
bS'mass-tower_01441_1100100101~10-cb1'
p193
tp194
Rp195
sg29
I1
sg30
I00
sg31
g150
sg33
g80
sag151
a(dp196
g2
g10
(g11
(S'S3'
p197
I0
I1
tp198
Rp199
(I3
S'|'
p200
NNNI3
I1
I0
tp201
bS'red'
p202
tp203
Rp204
sg3
I00
sg4
I01
sg5
g10
(g11
(S'S7'
p205
I0
I1
tp206
Rp207
(I3
S'|'
p208
NNNI7
I1
I0
tp209
bS'#FF3333'
p210
tp211
Rp212
sg6
g10
(g11
(S'S7'
p213
I0
I1
tp214
Rp215
(I3
S'|'
p216
NNNI7
I1
I0
tp217
bS'#3366FF'
p218
tp219
Rp220
sg7
g10
(g11
(S'S4'
p221
I0
I1
tp222
Rp223
(I3
S'|'
p224
NNNI4
I1
I0
tp225
bS'blue'
p226
tp227
Rp228
sg8
I11
sg9
g10
(g14
S'X\x00\x00\x00\x00\x00\x00\x00'
p229
tp230
Rp231
sg20
g10
(g11
(S'S34'
p232
I0
I1
tp233
Rp234
(I3
S'|'
p235
NNNI34
I1
I0
tp236
bS'mass-tower_00074_0010111001~10-cb1'
p237
tp238
Rp239
sg29
I2
sg30
I00
sg31
g150
sg33
g80
sag151
a(dp240
g2
g10
(g11
(S'S4'
p241
I0
I1
tp242
Rp243
(I3
S'|'
p244
NNNI4
I1
I0
tp245
bS'cyan'
p246
tp247
Rp248
sg3
I00
sg4
I01
sg5
g10
(g11
(S'S7'
p249
I0
I1
tp250
Rp251
(I3
S'|'
p252
NNNI7
I1
I0
tp253
bS'#00FFFF'
p254
tp255
Rp256
sg6
g10
(g11
(S'S7'
p257
I0
I1
tp258
Rp259
(I3
S'|'
p260
NNNI7
I1
I0
tp261
bS'#FFFF00'
p262
tp263
Rp264
sg7
g10
(g11
(S'S6'
p265
I0
I1
tp266
Rp267
(I3
S'|'
p268
NNNI6
I1
I0
tp269
bS'yellow'
p270
tp271
Rp272
sg8
I13
sg9
g10
(g14
S' \x01\x00\x00\x00\x00\x00\x00'
p273
tp274
Rp275
sg20
g10
(g11
(S'S34'
p276
I0
I1
tp277
Rp278
(I3
S'|'
p279
NNNI34
I1
I0
tp280
bS'mass-tower_00193_1010101010~10-cb1'
p281
tp282
Rp283
sg29
I3
sg30
I01
sg31
g150
sg33
g41
sag151
a(dp284
g2
g10
(g11
(S'S4'
p285
I0
I1
tp286
Rp287
(I3
S'|'
p288
NNNI4
I1
I0
tp289
bS'blue'
p290
tp291
Rp292
sg3
I00
sg4
I01
sg5
g10
(g11
(S'S7'
p293
I0
I1
tp294
Rp295
(I3
S'|'
p296
NNNI7
I1
I0
tp297
bS'#3366FF'
p298
tp299
Rp300
sg6
g10
(g11
(S'S7'
p301
I0
I1
tp302
Rp303
(I3
S'|'
p304
NNNI7
I1
I0
tp305
bS'#00FF00'
p306
tp307
Rp308
sg7
g10
(g11
(S'S5'
p309
I0
I1
tp310
Rp311
(I3
S'|'
p312
NNNI5
I1
I0
tp313
bS'green'
p314
tp315
Rp316
sg8
I15
sg9
g10
(g14
S'\xbc\x00\x00\x00\x00\x00\x00\x00'
p317
tp318
Rp319
sg20
g10
(g11
(S'S34'
p320
I0
I1
tp321
Rp322
(I3
S'|'
p323
NNNI34
I1
I0
tp324
bS'mass-tower_00260_0110110100~10-cb1'
p325
tp326
Rp327
sg29
I4
sg30
I01
sg31
g150
sg33
g80
sag151
a(dp328
g2
g10
(g11
(S'S6'
p329
I0
I1
tp330
Rp331
(I3
S'|'
p332
NNNI6
I1
I0
tp333
bS'orange'
p334
tp335
Rp336
sg3
I00
sg4
I01
sg5
g10
(g11
(S'S7'
p337
I0
I1
tp338
Rp339
(I3
S'|'
p340
NNNI7
I1
I0
tp341
bS'#FF7000'
p342
tp343
Rp344
sg6
g10
(g11
(S'S7'
p345
I0
I1
tp346
Rp347
(I3
S'|'
p348
NNNI7
I1
I0
tp349
bS'#00FFFF'
p350
tp351
Rp352
sg7
g10
(g11
(S'S4'
p353
I0
I1
tp354
Rp355
(I3
S'|'
p356
NNNI4
I1
I0
tp357
bS'cyan'
p358
tp359
Rp360
sg8
I17
sg9
g10
(g14
S'\x0f\x01\x00\x00\x00\x00\x00\x00'
p361
tp362
Rp363
sg20
g10
(g11
(S'S34'
p364
I0
I1
tp365
Rp366
(I3
S'|'
p367
NNNI34
I1
I0
tp368
bS'mass-tower_00102_0001011011~10-cb1'
p369
tp370
Rp371
sg29
I5
sg30
I00
sg31
g150
sg33
g41
sag151
a(dp372
g2
g10
(g11
(S'S7'
p373
I0
I1
tp374
Rp375
(I3
S'|'
p376
NNNI7
I1
I0
tp377
bS'magenta'
p378
tp379
Rp380
sg3
I00
sg4
I01
sg5
g10
(g11
(S'S7'
p381
I0
I1
tp382
Rp383
(I3
S'|'
p384
NNNI7
I1
I0
tp385
bS'#FF00FF'
p386
tp387
Rp388
sg6
g10
(g11
(S'S7'
p389
I0
I1
tp390
Rp391
(I3
S'|'
p392
NNNI7
I1
I0
tp393
bS'#FFFF00'
p394
tp395
Rp396
sg7
g10
(g11
(S'S6'
p397
I0
I1
tp398
Rp399
(I3
S'|'
p400
NNNI6
I1
I0
tp401
bS'yellow'
p402
tp403
Rp404
sg8
I19
sg9
g10
(g14
S'/\x00\x00\x00\x00\x00\x00\x00'
p405
tp406
Rp407
sg20
g10
(g11
(S'S34'
p408
I0
I1
tp409
Rp410
(I3
S'|'
p411
NNNI34
I1
I0
tp412
bS'mass-tower_00160_0011011100~10-cb1'
p413
tp414
Rp415
sg29
I6
sg30
I01
sg31
g150
sg33
g41
sag151
a(dp416
g2
g10
(g11
(S'S5'
p417
I0
I1
tp418
Rp419
(I3
S'|'
p420
NNNI5
I1
I0
tp421
bS'green'
p422
tp423
Rp424
sg3
I00
sg4
I01
sg5
g10
(g11
(S'S7'
p425
I0
I1
tp426
Rp427
(I3
S'|'
p428
NNNI7
I1
I0
tp429
bS'#00FF00'
p430
tp431
Rp432
sg6
g10
(g11
(S'S7'
p433
I0
I1
tp434
Rp435
(I3
S'|'
p436
NNNI7
I1
I0
tp437
bS'#FF7000'
p438
tp439
Rp440
sg7
g10
(g11
(S'S6'
p441
I0
I1
tp442
Rp443
(I3
S'|'
p444
NNNI6
I1
I0
tp445
bS'orange'
p446
tp447
Rp448
sg8
I21
sg9
g10
(g14
S'b\x00\x00\x00\x00\x00\x00\x00'
p449
tp450
Rp451
sg20
g10
(g11
(S'S34'
p452
I0
I1
tp453
Rp454
(I3
S'|'
p455
NNNI34
I1
I0
tp456
bS'mass-tower_00080_0110010110~10-cb1'
p457
tp458
Rp459
sg29
I7
sg30
I01
sg31
g150
sg33
g41
sag151
a(dp460
g2
g10
(g11
(S'S3'
p461
I0
I1
tp462
Rp463
(I3
S'|'
p464
NNNI3
I1
I0
tp465
bS'red'
p466
tp467
Rp468
sg3
I00
sg4
I01
sg5
g10
(g11
(S'S7'
p469
I0
I1
tp470
Rp471
(I3
S'|'
p472
NNNI7
I1
I0
tp473
bS'#FF3333'
p474
tp475
Rp476
sg6
g10
(g11
(S'S7'
p477
I0
I1
tp478
Rp479
(I3
S'|'
p480
NNNI7
I1
I0
tp481
bS'#808080'
p482
tp483
Rp484
sg7
g10
(g11
(S'S4'
p485
I0
I1
tp486
Rp487
(I3
S'|'
p488
NNNI4
I1
I0
tp489
bS'gray'
p490
tp491
Rp492
sg8
I23
sg9
g10
(g14
S'E\x01\x00\x00\x00\x00\x00\x00'
p493
tp494
Rp495
sg20
g10
(g11
(S'S34'
p496
I0
I1
tp497
Rp498
(I3
S'|'
p499
NNNI34
I1
I0
tp500
bS'mass-tower_00009_1100010110~10-cb1'
p501
tp502
Rp503
sg29
I8
sg30
I00
sg31
g150
sg33
g41
sag151
a(dp504
g2
g10
(g11
(S'S4'
p505
I0
I1
tp506
Rp507
(I3
S'|'
p508
NNNI4
I1
I0
tp509
bS'blue'
p510
tp511
Rp512
sg3
I00
sg4
I01
sg5
g10
(g11
(S'S7'
p513
I0
I1
tp514
Rp515
(I3
S'|'
p516
NNNI7
I1
I0
tp517
bS'#3366FF'
p518
tp519
Rp520
sg6
g10
(g11
(S'S7'
p521
I0
I1
tp522
Rp523
(I3
S'|'
p524
NNNI7
I1
I0
tp525
bS'#FFFF00'
p526
tp527
Rp528
sg7
g10
(g11
(S'S6'
p529
I0
I1
tp530
Rp531
(I3
S'|'
p532
NNNI6
I1
I0
tp533
bS'yellow'
p534
tp535
Rp536
sg8
I25
sg9
g10
(g14
S'\xec\x00\x00\x00\x00\x00\x00\x00'
p537
tp538
Rp539
sg20
g10
(g11
(S'S34'
p540
I0
I1
tp541
Rp542
(I3
S'|'
p543
NNNI34
I1
I0
tp544
bS'mass-tower_00524_1101001010~10-cb1'
p545
tp546
Rp547
sg29
I9
sg30
I01
sg31
g150
sg33
g80
sag151
a(dp548
g2
g10
(g11
(S'S4'
p549
I0
I1
tp550
Rp551
(I3
S'|'
p552
NNNI4
I1
I0
tp553
bS'gray'
p554
tp555
Rp556
sg3
I00
sg4
I01
sg5
g10
(g11
(S'S7'
p557
I0
I1
tp558
Rp559
(I3
S'|'
p560
NNNI7
I1
I0
tp561
bS'#808080'
p562
tp563
Rp564
sg6
g10
(g11
(S'S7'
p565
I0
I1
tp566
Rp567
(I3
S'|'
p568
NNNI7
I1
I0
tp569
bS'#FF00FF'
p570
tp571
Rp572
sg7
g10
(g11
(S'S7'
p573
I0
I1
tp574
Rp575
(I3
S'|'
p576
NNNI7
I1
I0
tp577
bS'magenta'
p578
tp579
Rp580
sg8
I27
sg9
g10
(g14
S'~\x00\x00\x00\x00\x00\x00\x00'
p581
tp582
Rp583
sg20
g10
(g11
(S'S34'
p584
I0
I1
tp585
Rp586
(I3
S'|'
p587
NNNI34
I1
I0
tp588
bS'mass-tower_00271_1011000101~10-cb1'
p589
tp590
Rp591
sg29
I10
sg30
I00
sg31
g150
sg33
g41
sag151
a(dp592
g2
g10
(g11
(S'S3'
p593
I0
I1
tp594
Rp595
(I3
S'|'
p596
NNNI3
I1
I0
tp597
bS'red'
p598
tp599
Rp600
sg3
I00
sg4
I01
sg5
g10
(g11
(S'S7'
p601
I0
I1
tp602
Rp603
(I3
S'|'
p604
NNNI7
I1
I0
tp605
bS'#FF3333'
p606
tp607
Rp608
sg6
g10
(g11
(S'S7'
p609
I0
I1
tp610
Rp611
(I3
S'|'
p612
NNNI7
I1
I0
tp613
bS'#FFFF00'
p614
tp615
Rp616
sg7
g10
(g11
(S'S6'
p617
I0
I1
tp618
Rp619
(I3
S'|'
p620
NNNI6
I1
I0
tp621
bS'yellow'
p622
tp623
Rp624
sg8
I29
sg9
g10
(g14
S'\xd1\x00\x00\x00\x00\x00\x00\x00'
p625
tp626
Rp627
sg20
g10
(g11
(S'S34'
p628
I0
I1
tp629
Rp630
(I3
S'|'
p631
NNNI34
I1
I0
tp632
bS'mass-tower_00021_1010010110~10-cb1'
p633
tp634
Rp635
sg29
I11
sg30
I00
sg31
g150
sg33
g80
sag151
a(dp636
g2
g10
(g11
(S'S7'
p637
I0
I1
tp638
Rp639
(I3
S'|'
p640
NNNI7
I1
I0
tp641
bS'magenta'
p642
tp643
Rp644
sg3
I00
sg4
I01
sg5
g10
(g11
(S'S7'
p645
I0
I1
tp646
Rp647
(I3
S'|'
p648
NNNI7
I1
I0
tp649
bS'#FF00FF'
p650
tp651
Rp652
sg6
g10
(g11
(S'S7'
p653
I0
I1
tp654
Rp655
(I3
S'|'
p656
NNNI7
I1
I0
tp657
bS'#00FF00'
p658
tp659
Rp660
sg7
g10
(g11
(S'S5'
p661
I0
I1
tp662
Rp663
(I3
S'|'
p664
NNNI5
I1
I0
tp665
bS'green'
p666
tp667
Rp668
sg8
I31
sg9
g10
(g14
S'c\x01\x00\x00\x00\x00\x00\x00'
p669
tp670
Rp671
sg20
g10
(g11
(S'S34'
p672
I0
I1
tp673
Rp674
(I3
S'|'
p675
NNNI34
I1
I0
tp676
bS'mass-tower_01264_0011111000~10-cb1'
p677
tp678
Rp679
sg29
I12
sg30
I01
sg31
g150
sg33
g41
sag151
a(dp680
g2
g10
(g11
(S'S6'
p681
I0
I1
tp682
Rp683
(I3
S'|'
p684
NNNI6
I1
I0
tp685
bS'yellow'
p686
tp687
Rp688
sg3
I00
sg4
I01
sg5
g10
(g11
(S'S7'
p689
I0
I1
tp690
Rp691
(I3
S'|'
p692
NNNI7
I1
I0
tp693
bS'#FFFF00'
p694
tp695
Rp696
sg6
g10
(g11
(S'S7'
p697
I0
I1
tp698
Rp699
(I3
S'|'
p700
NNNI7
I1
I0
tp701
bS'#00FFFF'
p702
tp703
Rp704
sg7
g10
(g11
(S'S4'
p705
I0
I1
tp706
Rp707
(I3
S'|'
p708
NNNI4
I1
I0
tp709
bS'cyan'
p710
tp711
Rp712
sg8
I33
sg9
g10
(g14
S'\xfd\x00\x00\x00\x00\x00\x00\x00'
p713
tp714
Rp715
sg20
g10
(g11
(S'S34'
p716
I0
I1
tp717
Rp718
(I3
S'|'
p719
NNNI34
I1
I0
tp720
bS'mass-tower_00279_1110000011~10-cb1'
p721
tp722
Rp723
sg29
I13
sg30
I01
sg31
g150
sg33
g80
sag151
a(dp724
g2
g10
(g11
(S'S4'
p725
I0
I1
tp726
Rp727
(I3
S'|'
p728
NNNI4
I1
I0
tp729
bS'gray'
p730
tp731
Rp732
sg3
I00
sg4
I01
sg5
g10
(g11
(S'S7'
p733
I0
I1
tp734
Rp735
(I3
S'|'
p736
NNNI7
I1
I0
tp737
bS'#808080'
p738
tp739
Rp740
sg6
g10
(g11
(S'S7'
p741
I0
I1
tp742
Rp743
(I3
S'|'
p744
NNNI7
I1
I0
tp745
bS'#FF3333'
p746
tp747
Rp748
sg7
g10
(g11
(S'S3'
p749
I0
I1
tp750
Rp751
(I3
S'|'
p752
NNNI3
I1
I0
tp753
bS'red'
p754
tp755
Rp756
sg8
I35
sg9
g10
(g14
S'D\x00\x00\x00\x00\x00\x00\x00'
p757
tp758
Rp759
sg20
g10
(g11
(S'S34'
p760
I0
I1
tp761
Rp762
(I3
S'|'
p763
NNNI34
I1
I0
tp764
bS'mass-tower_00117_0110111000~10-cb1'
p765
tp766
Rp767
sg29
I14
sg30
I00
sg31
g150
sg33
g41
sag151
a(dp768
g2
g10
(g11
(S'S4'
p769
I0
I1
tp770
Rp771
(I3
S'|'
p772
NNNI4
I1
I0
tp773
bS'blue'
p774
tp775
Rp776
sg3
I00
sg4
I01
sg5
g10
(g11
(S'S7'
p777
I0
I1
tp778
Rp779
(I3
S'|'
p780
NNNI7
I1
I0
tp781
bS'#3366FF'
p782
tp783
Rp784
sg6
g10
(g11
(S'S7'
p785
I0
I1
tp786
Rp787
(I3
S'|'
p788
NNNI7
I1
I0
tp789
bS'#FFFF00'
p790
tp791
Rp792
sg7
g10
(g11
(S'S6'
p793
I0
I1
tp794
Rp795
(I3
S'|'
p796
NNNI6
I1
I0
tp797
bS'yellow'
p798
tp799
Rp800
sg8
I37
sg9
g10
(g14
S'\x1c\x00\x00\x00\x00\x00\x00\x00'
p801
tp802
Rp803
sg20
g10
(g11
(S'S34'
p804
I0
I1
tp805
Rp806
(I3
S'|'
p807
NNNI34
I1
I0
tp808
bS'mass-tower_00357_1010000111~10-cb1'
p809
tp810
Rp811
sg29
I15
sg30
I00
sg31
g150
sg33
g80
sag151
a(dp812
g2
g10
(g11
(S'S7'
p813
I0
I1
tp814
Rp815
(I3
S'|'
p816
NNNI7
I1
I0
tp817
bS'magenta'
p818
tp819
Rp820
sg3
I00
sg4
I01
sg5
g10
(g11
(S'S7'
p821
I0
I1
tp822
Rp823
(I3
S'|'
p824
NNNI7
I1
I0
tp825
bS'#FF00FF'
p826
tp827
Rp828
sg6
g10
(g11
(S'S7'
p829
I0
I1
tp830
Rp831
(I3
S'|'
p832
NNNI7
I1
I0
tp833
bS'#808080'
p834
tp835
Rp836
sg7
g10
(g11
(S'S4'
p837
I0
I1
tp838
Rp839
(I3
S'|'
p840
NNNI4
I1
I0
tp841
bS'gray'
p842
tp843
Rp844
sg8
I39
sg9
g10
(g14
S'\x0e\x00\x00\x00\x00\x00\x00\x00'
p845
tp846
Rp847
sg20
g10
(g11
(S'S34'
p848
I0
I1
tp849
Rp850
(I3
S'|'
p851
NNNI34
I1
I0
tp852
bS'mass-tower_00483_1010010011~10-cb1'
p853
tp854
Rp855
sg29
I16
sg30
I01
sg31
g150
sg33
g41
sag151
a(dp856
g2
g10
(g11
(S'S6'
p857
I0
I1
tp858
Rp859
(I3
S'|'
p860
NNNI6
I1
I0
tp861
bS'orange'
p862
tp863
Rp864
sg3
I00
sg4
I01
sg5
g10
(g11
(S'S7'
p865
I0
I1
tp866
Rp867
(I3
S'|'
p868
NNNI7
I1
I0
tp869
bS'#FF7000'
p870
tp871
Rp872
sg6
g10
(g11
(S'S7'
p873
I0
I1
tp874
Rp875
(I3
S'|'
p876
NNNI7
I1
I0
tp877
bS'#3366FF'
p878
tp879
Rp880
sg7
g10
(g11
(S'S4'
p881
I0
I1
tp882
Rp883
(I3
S'|'
p884
NNNI4
I1
I0
tp885
bS'blue'
p886
tp887
Rp888
sg8
I41
sg9
g10
(g14
S'4\x00\x00\x00\x00\x00\x00\x00'
p889
tp890
Rp891
sg20
g10
(g11
(S'S34'
p892
I0
I1
tp893
Rp894
(I3
S'|'
p895
NNNI34
I1
I0
tp896
bS'mass-tower_00222_1001101001~10-cb1'
p897
tp898
Rp899
sg29
I17
sg30
I01
sg31
g150
sg33
g80
sag151
a(dp900
g2
g10
(g11
(S'S5'
p901
I0
I1
tp902
Rp903
(I3
S'|'
p904
NNNI5
I1
I0
tp905
bS'green'
p906
tp907
Rp908
sg3
I00
sg4
I01
sg5
g10
(g11
(S'S7'
p909
I0
I1
tp910
Rp911
(I3
S'|'
p912
NNNI7
I1
I0
tp913
bS'#00FF00'
p914
tp915
Rp916
sg6
g10
(g11
(S'S7'
p917
I0
I1
tp918
Rp919
(I3
S'|'
p920
NNNI7
I1
I0
tp921
bS'#808080'
p922
tp923
Rp924
sg7
g10
(g11
(S'S4'
p925
I0
I1
tp926
Rp927
(I3
S'|'
p928
NNNI4
I1
I0
tp929
bS'gray'
p930
tp931
Rp932
sg8
I43
sg9
g10
(g14
S'\xce\x00\x00\x00\x00\x00\x00\x00'
p933
tp934
Rp935
sg20
g10
(g11
(S'S34'
p936
I0
I1
tp937
Rp938
(I3
S'|'
p939
NNNI34
I1
I0
tp940
bS'mass-tower_00018_0001011101~10-cb1'
p941
tp942
Rp943
sg29
I18
sg30
I00
sg31
g150
sg33
g80
sag151
a(dp944
g2
g10
(g11
(S'S7'
p945
I0
I1
tp946
Rp947
(I3
S'|'
p948
NNNI7
I1
I0
tp949
bS'magenta'
p950
tp951
Rp952
sg3
I00
sg4
I01
sg5
g10
(g11
(S'S7'
p953
I0
I1
tp954
Rp955
(I3
S'|'
p956
NNNI7
I1
I0
tp957
bS'#FF00FF'
p958
tp959
Rp960
sg6
g10
(g11
(S'S7'
p961
I0
I1
tp962
Rp963
(I3
S'|'
p964
NNNI7
I1
I0
tp965
bS'#00FFFF'
p966
tp967
Rp968
sg7
g10
(g11
(S'S4'
p969
I0
I1
tp970
Rp971
(I3
S'|'
p972
NNNI4
I1
I0
tp973
bS'cyan'
p974
tp975
Rp976
sg8
I45
sg9
g10
(g14
S'\x0e\x00\x00\x00\x00\x00\x00\x00'
p977
tp978
Rp979
sg20
g10
(g11
(S'S34'
p980
I0
I1
tp981
Rp982
(I3
S'|'
p983
NNNI34
I1
I0
tp984
bS'mass-tower_00316_0101010101~10-cb1'
p985
tp986
Rp987
sg29
I19
sg30
I01
sg31
g150
sg33
g80
sag151
aS'finished experiment'
p988
a(dp989
g2
Nsg3
I01
sg4
I01
sg5
Nsg6
Nsg7
Nsg8
I48
sg9
g69
sg20
g10
(g11
(S'S14'
p990
I0
I1
tp991
Rp992
(I3
S'|'
p993
NNNI14
I1
I0
tp994
bS'stability01491'
p995
tp996
Rp997
sg29
I0
sg30
I00
sg31
S'posttest'
p998
sg33
g80
sa(dp999
g2
Nsg3
I01
sg4
I01
sg5
Nsg6
Nsg7
Nsg8
I49
sg9
g96
sg20
g10
(g11
(S'S14'
p1000
I0
I1
tp1001
Rp1002
(I3
S'|'
p1003
NNNI14
I1
I0
tp1004
bS'stability01893'
p1005
tp1006
Rp1007
sg29
I1
sg30
I01
sg31
g998
sg33
g41
sa(dp1008
g2
Nsg3
I01
sg4
I01
sg5
Nsg6
Nsg7
Nsg8
I50
sg9
g57
sg20
g10
(g11
(S'S14'
p1009
I0
I1
tp1010
Rp1011
(I3
S'|'
p1012
NNNI14
I1
I0
tp1013
bS'stability01023'
p1014
tp1015
Rp1016
sg29
I2
sg30
I01
sg31
g998
sg33
g41
sa(dp1017
g2
Nsg3
I01
sg4
I01
sg5
Nsg6
Nsg7
Nsg8
I51
sg9
g84
sg20
g10
(g11
(S'S14'
p1018
I0
I1
tp1019
Rp1020
(I3
S'|'
p1021
NNNI14
I1
I0
tp1022
bS'stability01178'
p1023
tp1024
Rp1025
sg29
I3
sg30
I01
sg31
g998
sg33
g41
sa(dp1026
g2
Nsg3
I01
sg4
I01
sg5
Nsg6
Nsg7
Nsg8
I52
sg9
g19
sg20
g10
(g11
(S'S14'
p1027
I0
I1
tp1028
Rp1029
(I3
S'|'
p1030
NNNI14
I1
I0
tp1031
bS'stability01654'
p1032
tp1033
Rp1034
sg29
I4
sg30
I00
sg31
g998
sg33
g80
sa(dp1035
g2
Nsg3
I01
sg4
I01
sg5
Nsg6
Nsg7
Nsg8
I53
sg9
g45
sg20
g10
(g11
(S'S14'
p1036
I0
I1
tp1037
Rp1038
(I3
S'|'
p1039
NNNI14
I1
I0
tp1040
bS'stability01967'
p1041
tp1042
Rp1043
sg29
I5
sg30
I00
sg31
g998
sg33
g80
saS'finished posttest'
p1044
a.