(lp0
(dp1
S'color1_name'
p2
NsS'video_fb'
p3
I01
sS'text_fb'
p4
I01
sS'color1'
p5
NsS'color0'
p6
NsS'index'
p7
I0
sS'color0_name'
p8
NsS'stimulus'
p9
cnumpy.core.multiarray
scalar
p10
(cnumpy
dtype
p11
(S'S14'
p12
I0
I1
tp13
Rp14
(I3
S'|'
p15
NNNI14
I1
I0
tp16
bS'stability01654'
p17
tp18
Rp19
sS'trial'
p20
I0
sS'stable'
p21
I00
sS'ttype'
p22
S'training'
p23
sS'flip_colors'
p24
I00
sa(dp25
g2
Nsg3
I01
sg4
I01
sg5
Nsg6
Nsg7
I1
sg8
Nsg9
g10
(g11
(S'S14'
p26
I0
I1
tp27
Rp28
(I3
S'|'
p29
NNNI14
I1
I0
tp30
bS'stability01967'
p31
tp32
Rp33
sg20
I1
sg21
I00
sg22
g23
sg24
I01
sa(dp34
g2
Nsg3
I01
sg4
I01
sg5
Nsg6
Nsg7
I2
sg8
Nsg9
g10
(g11
(S'S14'
p35
I0
I1
tp36
Rp37
(I3
S'|'
p38
NNNI14
I1
I0
tp39
bS'stability01023'
p40
tp41
Rp42
sg20
I2
sg21
I01
sg22
g23
sg24
I00
sa(dp43
g2
Nsg3
I01
sg4
I01
sg5
Nsg6
Nsg7
I3
sg8
Nsg9
g10
(g11
(S'S14'
p44
I0
I1
tp45
Rp46
(I3
S'|'
p47
NNNI14
I1
I0
tp48
bS'stability01491'
p49
tp50
Rp51
sg20
I3
sg21
I00
sg22
g23
sg24
I01
sa(dp52
g2
Nsg3
I01
sg4
I01
sg5
Nsg6
Nsg7
I4
sg8
Nsg9
g10
(g11
(S'S14'
p53
I0
I1
tp54
Rp55
(I3
S'|'
p56
NNNI14
I1
I0
tp57
bS'stability01178'
p58
tp59
Rp60
sg20
I4
sg21
I01
sg22
g23
sg24
I00
sa(dp61
g2
Nsg3
I01
sg4
I01
sg5
Nsg6
Nsg7
I5
sg8
Nsg9
g10
(g11
(S'S14'
p62
I0
I1
tp63
Rp64
(I3
S'|'
p65
NNNI14
I1
I0
tp66
bS'stability01893'
p67
tp68
Rp69
sg20
I5
sg21
I01
sg22
g23
sg24
I00
saS'finished training'
p70
a(dp71
g2
g10
(g11
(S'S4'
p72
I0
I1
tp73
Rp74
(I3
S'|'
p75
NNNI4
I1
I0
tp76
bS'gray'
p77
tp78
Rp79
sg3
I00
sg4
I01
sg5
g10
(g11
(S'S7'
p80
I0
I1
tp81
Rp82
(I3
S'|'
p83
NNNI7
I1
I0
tp84
bS'#808080'
p85
tp86
Rp87
sg6
g10
(g11
(S'S7'
p88
I0
I1
tp89
Rp90
(I3
S'|'
p91
NNNI7
I1
I0
tp92
bS'#00FFFF'
p93
tp94
Rp95
sg7
I7
sg8
g10
(g11
(S'S4'
p96
I0
I1
tp97
Rp98
(I3
S'|'
p99
NNNI4
I1
I0
tp100
bS'cyan'
p101
tp102
Rp103
sg9
g10
(g11
(S'S34'
p104
I0
I1
tp105
Rp106
(I3
S'|'
p107
NNNI34
I1
I0
tp108
bS'mass-tower_00015_1010101010~10-cb0'
p109
tp110
Rp111
sg20
I0
sg21
I00
sg22
S'experiment'
p112
sg24
I01
saS'query ratio'
p113
a(dp114
g2
g10
(g11
(S'S5'
p115
I0
I1
tp116
Rp117
(I3
S'|'
p118
NNNI5
I1
I0
tp119
bS'green'
p120
tp121
Rp122
sg3
I00
sg4
I01
sg5
g10
(g11
(S'S7'
p123
I0
I1
tp124
Rp125
(I3
S'|'
p126
NNNI7
I1
I0
tp127
bS'#00FF00'
p128
tp129
Rp130
sg6
g10
(g11
(S'S7'
p131
I0
I1
tp132
Rp133
(I3
S'|'
p134
NNNI7
I1
I0
tp135
bS'#FF00FF'
p136
tp137
Rp138
sg7
I9
sg8
g10
(g11
(S'S7'
p139
I0
I1
tp140
Rp141
(I3
S'|'
p142
NNNI7
I1
I0
tp143
bS'magenta'
p144
tp145
Rp146
sg9
g10
(g11
(S'S34'
p147
I0
I1
tp148
Rp149
(I3
S'|'
p150
NNNI34
I1
I0
tp151
bS'mass-tower_01441_1100100101~10-cb0'
p152
tp153
Rp154
sg20
I1
sg21
I00
sg22
g112
sg24
I01
sag113
a(dp155
g2
g10
(g11
(S'S3'
p156
I0
I1
tp157
Rp158
(I3
S'|'
p159
NNNI3
I1
I0
tp160
bS'red'
p161
tp162
Rp163
sg3
I00
sg4
I01
sg5
g10
(g11
(S'S7'
p164
I0
I1
tp165
Rp166
(I3
S'|'
p167
NNNI7
I1
I0
tp168
bS'#FF3333'
p169
tp170
Rp171
sg6
g10
(g11
(S'S7'
p172
I0
I1
tp173
Rp174
(I3
S'|'
p175
NNNI7
I1
I0
tp176
bS'#3366FF'
p177
tp178
Rp179
sg7
I11
sg8
g10
(g11
(S'S4'
p180
I0
I1
tp181
Rp182
(I3
S'|'
p183
NNNI4
I1
I0
tp184
bS'blue'
p185
tp186
Rp187
sg9
g10
(g11
(S'S34'
p188
I0
I1
tp189
Rp190
(I3
S'|'
p191
NNNI34
I1
I0
tp192
bS'mass-tower_00074_0010111001~10-cb0'
p193
tp194
Rp195
sg20
I2
sg21
I00
sg22
g112
sg24
I00
sag113
a(dp196
g2
g10
(g11
(S'S4'
p197
I0
I1
tp198
Rp199
(I3
S'|'
p200
NNNI4
I1
I0
tp201
bS'cyan'
p202
tp203
Rp204
sg3
I00
sg4
I01
sg5
g10
(g11
(S'S7'
p205
I0
I1
tp206
Rp207
(I3
S'|'
p208
NNNI7
I1
I0
tp209
bS'#00FFFF'
p210
tp211
Rp212
sg6
g10
(g11
(S'S7'
p213
I0
I1
tp214
Rp215
(I3
S'|'
p216
NNNI7
I1
I0
tp217
bS'#FFFF00'
p218
tp219
Rp220
sg7
I13
sg8
g10
(g11
(S'S6'
p221
I0
I1
tp222
Rp223
(I3
S'|'
p224
NNNI6
I1
I0
tp225
bS'yellow'
p226
tp227
Rp228
sg9
g10
(g11
(S'S34'
p229
I0
I1
tp230
Rp231
(I3
S'|'
p232
NNNI34
I1
I0
tp233
bS'mass-tower_00193_1010101010~10-cb0'
p234
tp235
Rp236
sg20
I3
sg21
I01
sg22
g112
sg24
I01
sag113
a(dp237
g2
g10
(g11
(S'S4'
p238
I0
I1
tp239
Rp240
(I3
S'|'
p241
NNNI4
I1
I0
tp242
bS'blue'
p243
tp244
Rp245
sg3
I00
sg4
I01
sg5
g10
(g11
(S'S7'
p246
I0
I1
tp247
Rp248
(I3
S'|'
p249
NNNI7
I1
I0
tp250
bS'#3366FF'
p251
tp252
Rp253
sg6
g10
(g11
(S'S7'
p254
I0
I1
tp255
Rp256
(I3
S'|'
p257
NNNI7
I1
I0
tp258
bS'#00FF00'
p259
tp260
Rp261
sg7
I15
sg8
g10
(g11
(S'S5'
p262
I0
I1
tp263
Rp264
(I3
S'|'
p265
NNNI5
I1
I0
tp266
bS'green'
p267
tp268
Rp269
sg9
g10
(g11
(S'S34'
p270
I0
I1
tp271
Rp272
(I3
S'|'
p273
NNNI34
I1
I0
tp274
bS'mass-tower_00260_0110110100~10-cb0'
p275
tp276
Rp277
sg20
I4
sg21
I01
sg22
g112
sg24
I00
sag113
a(dp278
g2
g10
(g11
(S'S6'
p279
I0
I1
tp280
Rp281
(I3
S'|'
p282
NNNI6
I1
I0
tp283
bS'orange'
p284
tp285
Rp286
sg3
I00
sg4
I01
sg5
g10
(g11
(S'S7'
p287
I0
I1
tp288
Rp289
(I3
S'|'
p290
NNNI7
I1
I0
tp291
bS'#FF7000'
p292
tp293
Rp294
sg6
g10
(g11
(S'S7'
p295
I0
I1
tp296
Rp297
(I3
S'|'
p298
NNNI7
I1
I0
tp299
bS'#00FFFF'
p300
tp301
Rp302
sg7
I17
sg8
g10
(g11
(S'S4'
p303
I0
I1
tp304
Rp305
(I3
S'|'
p306
NNNI4
I1
I0
tp307
bS'cyan'
p308
tp309
Rp310
sg9
g10
(g11
(S'S34'
p311
I0
I1
tp312
Rp313
(I3
S'|'
p314
NNNI34
I1
I0
tp315
bS'mass-tower_00102_0001011011~10-cb0'
p316
tp317
Rp318
sg20
I5
sg21
I00
sg22
g112
sg24
I00
sag113
a(dp319
g2
g10
(g11
(S'S7'
p320
I0
I1
tp321
Rp322
(I3
S'|'
p323
NNNI7
I1
I0
tp324
bS'magenta'
p325
tp326
Rp327
sg3
I00
sg4
I01
sg5
g10
(g11
(S'S7'
p328
I0
I1
tp329
Rp330
(I3
S'|'
p331
NNNI7
I1
I0
tp332
bS'#FF00FF'
p333
tp334
Rp335
sg6
g10
(g11
(S'S7'
p336
I0
I1
tp337
Rp338
(I3
S'|'
p339
NNNI7
I1
I0
tp340
bS'#FFFF00'
p341
tp342
Rp343
sg7
I19
sg8
g10
(g11
(S'S6'
p344
I0
I1
tp345
Rp346
(I3
S'|'
p347
NNNI6
I1
I0
tp348
bS'yellow'
p349
tp350
Rp351
sg9
g10
(g11
(S'S34'
p352
I0
I1
tp353
Rp354
(I3
S'|'
p355
NNNI34
I1
I0
tp356
bS'mass-tower_00160_0011011100~10-cb0'
p357
tp358
Rp359
sg20
I6
sg21
I01
sg22
g112
sg24
I01
sag113
a(dp360
g2
g10
(g11
(S'S5'
p361
I0
I1
tp362
Rp363
(I3
S'|'
p364
NNNI5
I1
I0
tp365
bS'green'
p366
tp367
Rp368
sg3
I00
sg4
I01
sg5
g10
(g11
(S'S7'
p369
I0
I1
tp370
Rp371
(I3
S'|'
p372
NNNI7
I1
I0
tp373
bS'#00FF00'
p374
tp375
Rp376
sg6
g10
(g11
(S'S7'
p377
I0
I1
tp378
Rp379
(I3
S'|'
p380
NNNI7
I1
I0
tp381
bS'#FF7000'
p382
tp383
Rp384
sg7
I21
sg8
g10
(g11
(S'S6'
p385
I0
I1
tp386
Rp387
(I3
S'|'
p388
NNNI6
I1
I0
tp389
bS'orange'
p390
tp391
Rp392
sg9
g10
(g11
(S'S34'
p393
I0
I1
tp394
Rp395
(I3
S'|'
p396
NNNI34
I1
I0
tp397
bS'mass-tower_00080_0110010110~10-cb0'
p398
tp399
Rp400
sg20
I7
sg21
I01
sg22
g112
sg24
I01
sag113
a(dp401
g2
g10
(g11
(S'S3'
p402
I0
I1
tp403
Rp404
(I3
S'|'
p405
NNNI3
I1
I0
tp406
bS'red'
p407
tp408
Rp409
sg3
I00
sg4
I01
sg5
g10
(g11
(S'S7'
p410
I0
I1
tp411
Rp412
(I3
S'|'
p413
NNNI7
I1
I0
tp414
bS'#FF3333'
p415
tp416
Rp417
sg6
g10
(g11
(S'S7'
p418
I0
I1
tp419
Rp420
(I3
S'|'
p421
NNNI7
I1
I0
tp422
bS'#808080'
p423
tp424
Rp425
sg7
I23
sg8
g10
(g11
(S'S4'
p426
I0
I1
tp427
Rp428
(I3
S'|'
p429
NNNI4
I1
I0
tp430
bS'gray'
p431
tp432
Rp433
sg9
g10
(g11
(S'S34'
p434
I0
I1
tp435
Rp436
(I3
S'|'
p437
NNNI34
I1
I0
tp438
bS'mass-tower_00009_1100010110~10-cb0'
p439
tp440
Rp441
sg20
I8
sg21
I00
sg22
g112
sg24
I00
sag113
a(dp442
g2
g10
(g11
(S'S4'
p443
I0
I1
tp444
Rp445
(I3
S'|'
p446
NNNI4
I1
I0
tp447
bS'blue'
p448
tp449
Rp450
sg3
I00
sg4
I01
sg5
g10
(g11
(S'S7'
p451
I0
I1
tp452
Rp453
(I3
S'|'
p454
NNNI7
I1
I0
tp455
bS'#3366FF'
p456
tp457
Rp458
sg6
g10
(g11
(S'S7'
p459
I0
I1
tp460
Rp461
(I3
S'|'
p462
NNNI7
I1
I0
tp463
bS'#FFFF00'
p464
tp465
Rp466
sg7
I25
sg8
g10
(g11
(S'S6'
p467
I0
I1
tp468
Rp469
(I3
S'|'
p470
NNNI6
I1
I0
tp471
bS'yellow'
p472
tp473
Rp474
sg9
g10
(g11
(S'S34'
p475
I0
I1
tp476
Rp477
(I3
S'|'
p478
NNNI34
I1
I0
tp479
bS'mass-tower_00524_1101001010~10-cb0'
p480
tp481
Rp482
sg20
I9
sg21
I01
sg22
g112
sg24
I01
sag113
a(dp483
g2
g10
(g11
(S'S4'
p484
I0
I1
tp485
Rp486
(I3
S'|'
p487
NNNI4
I1
I0
tp488
bS'gray'
p489
tp490
Rp491
sg3
I00
sg4
I01
sg5
g10
(g11
(S'S7'
p492
I0
I1
tp493
Rp494
(I3
S'|'
p495
NNNI7
I1
I0
tp496
bS'#808080'
p497
tp498
Rp499
sg6
g10
(g11
(S'S7'
p500
I0
I1
tp501
Rp502
(I3
S'|'
p503
NNNI7
I1
I0
tp504
bS'#FF00FF'
p505
tp506
Rp507
sg7
I27
sg8
g10
(g11
(S'S7'
p508
I0
I1
tp509
Rp510
(I3
S'|'
p511
NNNI7
I1
I0
tp512
bS'magenta'
p513
tp514
Rp515
sg9
g10
(g11
(S'S34'
p516
I0
I1
tp517
Rp518
(I3
S'|'
p519
NNNI34
I1
I0
tp520
bS'mass-tower_00271_1011000101~10-cb0'
p521
tp522
Rp523
sg20
I10
sg21
I00
sg22
g112
sg24
I01
sag113
a(dp524
g2
g10
(g11
(S'S3'
p525
I0
I1
tp526
Rp527
(I3
S'|'
p528
NNNI3
I1
I0
tp529
bS'red'
p530
tp531
Rp532
sg3
I00
sg4
I01
sg5
g10
(g11
(S'S7'
p533
I0
I1
tp534
Rp535
(I3
S'|'
p536
NNNI7
I1
I0
tp537
bS'#FF3333'
p538
tp539
Rp540
sg6
g10
(g11
(S'S7'
p541
I0
I1
tp542
Rp543
(I3
S'|'
p544
NNNI7
I1
I0
tp545
bS'#FFFF00'
p546
tp547
Rp548
sg7
I29
sg8
g10
(g11
(S'S6'
p549
I0
I1
tp550
Rp551
(I3
S'|'
p552
NNNI6
I1
I0
tp553
bS'yellow'
p554
tp555
Rp556
sg9
g10
(g11
(S'S34'
p557
I0
I1
tp558
Rp559
(I3
S'|'
p560
NNNI34
I1
I0
tp561
bS'mass-tower_00021_1010010110~10-cb0'
p562
tp563
Rp564
sg20
I11
sg21
I00
sg22
g112
sg24
I00
sag113
a(dp565
g2
g10
(g11
(S'S7'
p566
I0
I1
tp567
Rp568
(I3
S'|'
p569
NNNI7
I1
I0
tp570
bS'magenta'
p571
tp572
Rp573
sg3
I00
sg4
I01
sg5
g10
(g11
(S'S7'
p574
I0
I1
tp575
Rp576
(I3
S'|'
p577
NNNI7
I1
I0
tp578
bS'#FF00FF'
p579
tp580
Rp581
sg6
g10
(g11
(S'S7'
p582
I0
I1
tp583
Rp584
(I3
S'|'
p585
NNNI7
I1
I0
tp586
bS'#00FF00'
p587
tp588
Rp589
sg7
I31
sg8
g10
(g11
(S'S5'
p590
I0
I1
tp591
Rp592
(I3
S'|'
p593
NNNI5
I1
I0
tp594
bS'green'
p595
tp596
Rp597
sg9
g10
(g11
(S'S34'
p598
I0
I1
tp599
Rp600
(I3
S'|'
p601
NNNI34
I1
I0
tp602
bS'mass-tower_01264_0011111000~10-cb0'
p603
tp604
Rp605
sg20
I12
sg21
I01
sg22
g112
sg24
I00
sag113
a(dp606
g2
g10
(g11
(S'S6'
p607
I0
I1
tp608
Rp609
(I3
S'|'
p610
NNNI6
I1
I0
tp611
bS'yellow'
p612
tp613
Rp614
sg3
I00
sg4
I01
sg5
g10
(g11
(S'S7'
p615
I0
I1
tp616
Rp617
(I3
S'|'
p618
NNNI7
I1
I0
tp619
bS'#FFFF00'
p620
tp621
Rp622
sg6
g10
(g11
(S'S7'
p623
I0
I1
tp624
Rp625
(I3
S'|'
p626
NNNI7
I1
I0
tp627
bS'#00FFFF'
p628
tp629
Rp630
sg7
I33
sg8
g10
(g11
(S'S4'
p631
I0
I1
tp632
Rp633
(I3
S'|'
p634
NNNI4
I1
I0
tp635
bS'cyan'
p636
tp637
Rp638
sg9
g10
(g11
(S'S34'
p639
I0
I1
tp640
Rp641
(I3
S'|'
p642
NNNI34
I1
I0
tp643
bS'mass-tower_00279_1110000011~10-cb0'
p644
tp645
Rp646
sg20
I13
sg21
I01
sg22
g112
sg24
I00
sag113
a(dp647
g2
g10
(g11
(S'S4'
p648
I0
I1
tp649
Rp650
(I3
S'|'
p651
NNNI4
I1
I0
tp652
bS'gray'
p653
tp654
Rp655
sg3
I00
sg4
I01
sg5
g10
(g11
(S'S7'
p656
I0
I1
tp657
Rp658
(I3
S'|'
p659
NNNI7
I1
I0
tp660
bS'#808080'
p661
tp662
Rp663
sg6
g10
(g11
(S'S7'
p664
I0
I1
tp665
Rp666
(I3
S'|'
p667
NNNI7
I1
I0
tp668
bS'#FF3333'
p669
tp670
Rp671
sg7
I35
sg8
g10
(g11
(S'S3'
p672
I0
I1
tp673
Rp674
(I3
S'|'
p675
NNNI3
I1
I0
tp676
bS'red'
p677
tp678
Rp679
sg9
g10
(g11
(S'S34'
p680
I0
I1
tp681
Rp682
(I3
S'|'
p683
NNNI34
I1
I0
tp684
bS'mass-tower_00117_0110111000~10-cb0'
p685
tp686
Rp687
sg20
I14
sg21
I00
sg22
g112
sg24
I01
sag113
a(dp688
g2
g10
(g11
(S'S4'
p689
I0
I1
tp690
Rp691
(I3
S'|'
p692
NNNI4
I1
I0
tp693
bS'blue'
p694
tp695
Rp696
sg3
I00
sg4
I01
sg5
g10
(g11
(S'S7'
p697
I0
I1
tp698
Rp699
(I3
S'|'
p700
NNNI7
I1
I0
tp701
bS'#3366FF'
p702
tp703
Rp704
sg6
g10
(g11
(S'S7'
p705
I0
I1
tp706
Rp707
(I3
S'|'
p708
NNNI7
I1
I0
tp709
bS'#FFFF00'
p710
tp711
Rp712
sg7
I37
sg8
g10
(g11
(S'S6'
p713
I0
I1
tp714
Rp715
(I3
S'|'
p716
NNNI6
I1
I0
tp717
bS'yellow'
p718
tp719
Rp720
sg9
g10
(g11
(S'S34'
p721
I0
I1
tp722
Rp723
(I3
S'|'
p724
NNNI34
I1
I0
tp725
bS'mass-tower_00357_1010000111~10-cb0'
p726
tp727
Rp728
sg20
I15
sg21
I00
sg22
g112
sg24
I00
sag113
a(dp729
g2
g10
(g11
(S'S7'
p730
I0
I1
tp731
Rp732
(I3
S'|'
p733
NNNI7
I1
I0
tp734
bS'magenta'
p735
tp736
Rp737
sg3
I00
sg4
I01
sg5
g10
(g11
(S'S7'
p738
I0
I1
tp739
Rp740
(I3
S'|'
p741
NNNI7
I1
I0
tp742
bS'#FF00FF'
p743
tp744
Rp745
sg6
g10
(g11
(S'S7'
p746
I0
I1
tp747
Rp748
(I3
S'|'
p749
NNNI7
I1
I0
tp750
bS'#808080'
p751
tp752
Rp753
sg7
I39
sg8
g10
(g11
(S'S4'
p754
I0
I1
tp755
Rp756
(I3
S'|'
p757
NNNI4
I1
I0
tp758
bS'gray'
p759
tp760
Rp761
sg9
g10
(g11
(S'S34'
p762
I0
I1
tp763
Rp764
(I3
S'|'
p765
NNNI34
I1
I0
tp766
bS'mass-tower_00483_1010010011~10-cb0'
p767
tp768
Rp769
sg20
I16
sg21
I01
sg22
g112
sg24
I01
sag113
a(dp770
g2
g10
(g11
(S'S6'
p771
I0
I1
tp772
Rp773
(I3
S'|'
p774
NNNI6
I1
I0
tp775
bS'orange'
p776
tp777
Rp778
sg3
I00
sg4
I01
sg5
g10
(g11
(S'S7'
p779
I0
I1
tp780
Rp781
(I3
S'|'
p782
NNNI7
I1
I0
tp783
bS'#FF7000'
p784
tp785
Rp786
sg6
g10
(g11
(S'S7'
p787
I0
I1
tp788
Rp789
(I3
S'|'
p790
NNNI7
I1
I0
tp791
bS'#3366FF'
p792
tp793
Rp794
sg7
I41
sg8
g10
(g11
(S'S4'
p795
I0
I1
tp796
Rp797
(I3
S'|'
p798
NNNI4
I1
I0
tp799
bS'blue'
p800
tp801
Rp802
sg9
g10
(g11
(S'S34'
p803
I0
I1
tp804
Rp805
(I3
S'|'
p806
NNNI34
I1
I0
tp807
bS'mass-tower_00222_1001101001~10-cb0'
p808
tp809
Rp810
sg20
I17
sg21
I01
sg22
g112
sg24
I01
sag113
a(dp811
g2
g10
(g11
(S'S5'
p812
I0
I1
tp813
Rp814
(I3
S'|'
p815
NNNI5
I1
I0
tp816
bS'green'
p817
tp818
Rp819
sg3
I00
sg4
I01
sg5
g10
(g11
(S'S7'
p820
I0
I1
tp821
Rp822
(I3
S'|'
p823
NNNI7
I1
I0
tp824
bS'#00FF00'
p825
tp826
Rp827
sg6
g10
(g11
(S'S7'
p828
I0
I1
tp829
Rp830
(I3
S'|'
p831
NNNI7
I1
I0
tp832
bS'#808080'
p833
tp834
Rp835
sg7
I43
sg8
g10
(g11
(S'S4'
p836
I0
I1
tp837
Rp838
(I3
S'|'
p839
NNNI4
I1
I0
tp840
bS'gray'
p841
tp842
Rp843
sg9
g10
(g11
(S'S34'
p844
I0
I1
tp845
Rp846
(I3
S'|'
p847
NNNI34
I1
I0
tp848
bS'mass-tower_00018_0001011101~10-cb0'
p849
tp850
Rp851
sg20
I18
sg21
I00
sg22
g112
sg24
I01
sag113
a(dp852
g2
g10
(g11
(S'S7'
p853
I0
I1
tp854
Rp855
(I3
S'|'
p856
NNNI7
I1
I0
tp857
bS'magenta'
p858
tp859
Rp860
sg3
I00
sg4
I01
sg5
g10
(g11
(S'S7'
p861
I0
I1
tp862
Rp863
(I3
S'|'
p864
NNNI7
I1
I0
tp865
bS'#FF00FF'
p866
tp867
Rp868
sg6
g10
(g11
(S'S7'
p869
I0
I1
tp870
Rp871
(I3
S'|'
p872
NNNI7
I1
I0
tp873
bS'#00FFFF'
p874
tp875
Rp876
sg7
I45
sg8
g10
(g11
(S'S4'
p877
I0
I1
tp878
Rp879
(I3
S'|'
p880
NNNI4
I1
I0
tp881
bS'cyan'
p882
tp883
Rp884
sg9
g10
(g11
(S'S34'
p885
I0
I1
tp886
Rp887
(I3
S'|'
p888
NNNI34
I1
I0
tp889
bS'mass-tower_00316_0101010101~10-cb0'
p890
tp891
Rp892
sg20
I19
sg21
I01
sg22
g112
sg24
I01
sag113
aS'finished experiment'
p893
a(dp894
g2
Nsg3
I01
sg4
I01
sg5
Nsg6
Nsg7
I48
sg8
Nsg9
g10
(g11
(S'S14'
p895
I0
I1
tp896
Rp897
(I3
S'|'
p898
NNNI14
I1
I0
tp899
bS'stability01178'
p900
tp901
Rp902
sg20
I0
sg21
I01
sg22
S'posttest'
p903
sg24
I01
sa(dp904
g2
Nsg3
I01
sg4
I01
sg5
Nsg6
Nsg7
I49
sg8
Nsg9
g10
(g11
(S'S14'
p905
I0
I1
tp906
Rp907
(I3
S'|'
p908
NNNI14
I1
I0
tp909
bS'stability01893'
p910
tp911
Rp912
sg20
I1
sg21
I01
sg22
g903
sg24
I01
sa(dp913
g2
Nsg3
I01
sg4
I01
sg5
Nsg6
Nsg7
I50
sg8
Nsg9
g10
(g11
(S'S14'
p914
I0
I1
tp915
Rp916
(I3
S'|'
p917
NNNI14
I1
I0
tp918
bS'stability01967'
p919
tp920
Rp921
sg20
I2
sg21
I00
sg22
g903
sg24
I01
sa(dp922
g2
Nsg3
I01
sg4
I01
sg5
Nsg6
Nsg7
I51
sg8
Nsg9
g10
(g11
(S'S14'
p923
I0
I1
tp924
Rp925
(I3
S'|'
p926
NNNI14
I1
I0
tp927
bS'stability01491'
p928
tp929
Rp930
sg20
I3
sg21
I00
sg22
g903
sg24
I00
sa(dp931
g2
Nsg3
I01
sg4
I01
sg5
Nsg6
Nsg7
I52
sg8
Nsg9
g10
(g11
(S'S14'
p932
I0
I1
tp933
Rp934
(I3
S'|'
p935
NNNI14
I1
I0
tp936
bS'stability01654'
p937
tp938
Rp939
sg20
I4
sg21
I00
sg22
g903
sg24
I01
sa(dp940
g2
Nsg3
I01
sg4
I01
sg5
Nsg6
Nsg7
I53
sg8
Nsg9
g10
(g11
(S'S14'
p941
I0
I1
tp942
Rp943
(I3
S'|'
p944
NNNI14
I1
I0
tp945
bS'stability01023'
p946
tp947
Rp948
sg20
I5
sg21
I01
sg22
g903
sg24
I00
saS'finished posttest'
p949
a.