(lp0
(dp1
S'color1_name'
p2
NsS'video_fb'
p3
I01
sS'text_fb'
p4
I01
sS'color1'
p5
NsS'color0'
p6
NsS'index'
p7
I0
sS'color0_name'
p8
NsS'stimulus'
p9
cnumpy.core.multiarray
scalar
p10
(cnumpy
dtype
p11
(S'S14'
p12
I0
I1
tp13
Rp14
(I3
S'|'
p15
NNNI14
I1
I0
tp16
bS'stability01654'
p17
tp18
Rp19
sS'trial'
p20
I0
sS'stable'
p21
I00
sS'ttype'
p22
S'training'
p23
sa(dp24
g2
Nsg3
I01
sg4
I01
sg5
Nsg6
Nsg7
I1
sg8
Nsg9
g10
(g11
(S'S14'
p25
I0
I1
tp26
Rp27
(I3
S'|'
p28
NNNI14
I1
I0
tp29
bS'stability01967'
p30
tp31
Rp32
sg20
I1
sg21
I00
sg22
g23
sa(dp33
g2
Nsg3
I01
sg4
I01
sg5
Nsg6
Nsg7
I2
sg8
Nsg9
g10
(g11
(S'S14'
p34
I0
I1
tp35
Rp36
(I3
S'|'
p37
NNNI14
I1
I0
tp38
bS'stability01023'
p39
tp40
Rp41
sg20
I2
sg21
I01
sg22
g23
sa(dp42
g2
Nsg3
I01
sg4
I01
sg5
Nsg6
Nsg7
I3
sg8
Nsg9
g10
(g11
(S'S14'
p43
I0
I1
tp44
Rp45
(I3
S'|'
p46
NNNI14
I1
I0
tp47
bS'stability01491'
p48
tp49
Rp50
sg20
I3
sg21
I00
sg22
g23
sa(dp51
g2
Nsg3
I01
sg4
I01
sg5
Nsg6
Nsg7
I4
sg8
Nsg9
g10
(g11
(S'S14'
p52
I0
I1
tp53
Rp54
(I3
S'|'
p55
NNNI14
I1
I0
tp56
bS'stability01178'
p57
tp58
Rp59
sg20
I4
sg21
I01
sg22
g23
sa(dp60
g2
Nsg3
I01
sg4
I01
sg5
Nsg6
Nsg7
I5
sg8
Nsg9
g10
(g11
(S'S14'
p61
I0
I1
tp62
Rp63
(I3
S'|'
p64
NNNI14
I1
I0
tp65
bS'stability01893'
p66
tp67
Rp68
sg20
I5
sg21
I01
sg22
g23
saS'finished training'
p69
a(dp70
g2
g10
(g11
(S'S4'
p71
I0
I1
tp72
Rp73
(I3
S'|'
p74
NNNI4
I1
I0
tp75
bS'gray'
p76
tp77
Rp78
sg3
I00
sg4
I00
sg5
g10
(g11
(S'S7'
p79
I0
I1
tp80
Rp81
(I3
S'|'
p82
NNNI7
I1
I0
tp83
bS'#808080'
p84
tp85
Rp86
sg6
g10
(g11
(S'S7'
p87
I0
I1
tp88
Rp89
(I3
S'|'
p90
NNNI7
I1
I0
tp91
bS'#FF00FF'
p92
tp93
Rp94
sg7
I7
sg8
g10
(g11
(S'S7'
p95
I0
I1
tp96
Rp97
(I3
S'|'
p98
NNNI7
I1
I0
tp99
bS'magenta'
p100
tp101
Rp102
sg9
g10
(g11
(S'S34'
p103
I0
I1
tp104
Rp105
(I3
S'|'
p106
NNNI34
I1
I0
tp107
bS'mass-tower_00271_1011000101~10-cb1'
p108
tp109
Rp110
sg20
I0
sg21
I00
sg22
S'experiment'
p111
sa(dp112
g2
g10
(g11
(S'S5'
p113
I0
I1
tp114
Rp115
(I3
S'|'
p116
NNNI5
I1
I0
tp117
bS'green'
p118
tp119
Rp120
sg3
I00
sg4
I00
sg5
g10
(g11
(S'S7'
p121
I0
I1
tp122
Rp123
(I3
S'|'
p124
NNNI7
I1
I0
tp125
bS'#00FF00'
p126
tp127
Rp128
sg6
g10
(g11
(S'S7'
p129
I0
I1
tp130
Rp131
(I3
S'|'
p132
NNNI7
I1
I0
tp133
bS'#FF7000'
p134
tp135
Rp136
sg7
I8
sg8
g10
(g11
(S'S6'
p137
I0
I1
tp138
Rp139
(I3
S'|'
p140
NNNI6
I1
I0
tp141
bS'orange'
p142
tp143
Rp144
sg9
g10
(g11
(S'S34'
p145
I0
I1
tp146
Rp147
(I3
S'|'
p148
NNNI34
I1
I0
tp149
bS'mass-tower_00080_0110010110~10-cb1'
p150
tp151
Rp152
sg20
I1
sg21
I01
sg22
g111
sa(dp153
g2
g10
(g11
(S'S4'
p154
I0
I1
tp155
Rp156
(I3
S'|'
p157
NNNI4
I1
I0
tp158
bS'gray'
p159
tp160
Rp161
sg3
I00
sg4
I00
sg5
g10
(g11
(S'S7'
p162
I0
I1
tp163
Rp164
(I3
S'|'
p165
NNNI7
I1
I0
tp166
bS'#808080'
p167
tp168
Rp169
sg6
g10
(g11
(S'S7'
p170
I0
I1
tp171
Rp172
(I3
S'|'
p173
NNNI7
I1
I0
tp174
bS'#00FFFF'
p175
tp176
Rp177
sg7
I9
sg8
g10
(g11
(S'S4'
p178
I0
I1
tp179
Rp180
(I3
S'|'
p181
NNNI4
I1
I0
tp182
bS'cyan'
p183
tp184
Rp185
sg9
g10
(g11
(S'S34'
p186
I0
I1
tp187
Rp188
(I3
S'|'
p189
NNNI34
I1
I0
tp190
bS'mass-tower_00015_1010101010~10-cb1'
p191
tp192
Rp193
sg20
I2
sg21
I00
sg22
g111
sa(dp194
g2
g10
(g11
(S'S4'
p195
I0
I1
tp196
Rp197
(I3
S'|'
p198
NNNI4
I1
I0
tp199
bS'blue'
p200
tp201
Rp202
sg3
I00
sg4
I00
sg5
g10
(g11
(S'S7'
p203
I0
I1
tp204
Rp205
(I3
S'|'
p206
NNNI7
I1
I0
tp207
bS'#3366FF'
p208
tp209
Rp210
sg6
g10
(g11
(S'S7'
p211
I0
I1
tp212
Rp213
(I3
S'|'
p214
NNNI7
I1
I0
tp215
bS'#FFFF00'
p216
tp217
Rp218
sg7
I10
sg8
g10
(g11
(S'S6'
p219
I0
I1
tp220
Rp221
(I3
S'|'
p222
NNNI6
I1
I0
tp223
bS'yellow'
p224
tp225
Rp226
sg9
g10
(g11
(S'S34'
p227
I0
I1
tp228
Rp229
(I3
S'|'
p230
NNNI34
I1
I0
tp231
bS'mass-tower_00524_1101001010~10-cb1'
p232
tp233
Rp234
sg20
I3
sg21
I01
sg22
g111
sa(dp235
g2
g10
(g11
(S'S4'
p236
I0
I1
tp237
Rp238
(I3
S'|'
p239
NNNI4
I1
I0
tp240
bS'blue'
p241
tp242
Rp243
sg3
I00
sg4
I00
sg5
g10
(g11
(S'S7'
p244
I0
I1
tp245
Rp246
(I3
S'|'
p247
NNNI7
I1
I0
tp248
bS'#3366FF'
p249
tp250
Rp251
sg6
g10
(g11
(S'S7'
p252
I0
I1
tp253
Rp254
(I3
S'|'
p255
NNNI7
I1
I0
tp256
bS'#00FF00'
p257
tp258
Rp259
sg7
I11
sg8
g10
(g11
(S'S5'
p260
I0
I1
tp261
Rp262
(I3
S'|'
p263
NNNI5
I1
I0
tp264
bS'green'
p265
tp266
Rp267
sg9
g10
(g11
(S'S34'
p268
I0
I1
tp269
Rp270
(I3
S'|'
p271
NNNI34
I1
I0
tp272
bS'mass-tower_00260_0110110100~10-cb1'
p273
tp274
Rp275
sg20
I4
sg21
I01
sg22
g111
sa(dp276
g2
g10
(g11
(S'S4'
p277
I0
I1
tp278
Rp279
(I3
S'|'
p280
NNNI4
I1
I0
tp281
bS'cyan'
p282
tp283
Rp284
sg3
I00
sg4
I00
sg5
g10
(g11
(S'S7'
p285
I0
I1
tp286
Rp287
(I3
S'|'
p288
NNNI7
I1
I0
tp289
bS'#00FFFF'
p290
tp291
Rp292
sg6
g10
(g11
(S'S7'
p293
I0
I1
tp294
Rp295
(I3
S'|'
p296
NNNI7
I1
I0
tp297
bS'#FFFF00'
p298
tp299
Rp300
sg7
I12
sg8
g10
(g11
(S'S6'
p301
I0
I1
tp302
Rp303
(I3
S'|'
p304
NNNI6
I1
I0
tp305
bS'yellow'
p306
tp307
Rp308
sg9
g10
(g11
(S'S34'
p309
I0
I1
tp310
Rp311
(I3
S'|'
p312
NNNI34
I1
I0
tp313
bS'mass-tower_00193_1010101010~10-cb1'
p314
tp315
Rp316
sg20
I5
sg21
I01
sg22
g111
sa(dp317
g2
g10
(g11
(S'S5'
p318
I0
I1
tp319
Rp320
(I3
S'|'
p321
NNNI5
I1
I0
tp322
bS'green'
p323
tp324
Rp325
sg3
I00
sg4
I00
sg5
g10
(g11
(S'S7'
p326
I0
I1
tp327
Rp328
(I3
S'|'
p329
NNNI7
I1
I0
tp330
bS'#00FF00'
p331
tp332
Rp333
sg6
g10
(g11
(S'S7'
p334
I0
I1
tp335
Rp336
(I3
S'|'
p337
NNNI7
I1
I0
tp338
bS'#808080'
p339
tp340
Rp341
sg7
I13
sg8
g10
(g11
(S'S4'
p342
I0
I1
tp343
Rp344
(I3
S'|'
p345
NNNI4
I1
I0
tp346
bS'gray'
p347
tp348
Rp349
sg9
g10
(g11
(S'S34'
p350
I0
I1
tp351
Rp352
(I3
S'|'
p353
NNNI34
I1
I0
tp354
bS'mass-tower_00018_0001011101~10-cb1'
p355
tp356
Rp357
sg20
I6
sg21
I00
sg22
g111
sa(dp358
g2
g10
(g11
(S'S3'
p359
I0
I1
tp360
Rp361
(I3
S'|'
p362
NNNI3
I1
I0
tp363
bS'red'
p364
tp365
Rp366
sg3
I00
sg4
I00
sg5
g10
(g11
(S'S7'
p367
I0
I1
tp368
Rp369
(I3
S'|'
p370
NNNI7
I1
I0
tp371
bS'#FF3333'
p372
tp373
Rp374
sg6
g10
(g11
(S'S7'
p375
I0
I1
tp376
Rp377
(I3
S'|'
p378
NNNI7
I1
I0
tp379
bS'#FFFF00'
p380
tp381
Rp382
sg7
I14
sg8
g10
(g11
(S'S6'
p383
I0
I1
tp384
Rp385
(I3
S'|'
p386
NNNI6
I1
I0
tp387
bS'yellow'
p388
tp389
Rp390
sg9
g10
(g11
(S'S34'
p391
I0
I1
tp392
Rp393
(I3
S'|'
p394
NNNI34
I1
I0
tp395
bS'mass-tower_00021_1010010110~10-cb1'
p396
tp397
Rp398
sg20
I7
sg21
I00
sg22
g111
sa(dp399
g2
g10
(g11
(S'S4'
p400
I0
I1
tp401
Rp402
(I3
S'|'
p403
NNNI4
I1
I0
tp404
bS'blue'
p405
tp406
Rp407
sg3
I00
sg4
I00
sg5
g10
(g11
(S'S7'
p408
I0
I1
tp409
Rp410
(I3
S'|'
p411
NNNI7
I1
I0
tp412
bS'#3366FF'
p413
tp414
Rp415
sg6
g10
(g11
(S'S7'
p416
I0
I1
tp417
Rp418
(I3
S'|'
p419
NNNI7
I1
I0
tp420
bS'#FFFF00'
p421
tp422
Rp423
sg7
I15
sg8
g10
(g11
(S'S6'
p424
I0
I1
tp425
Rp426
(I3
S'|'
p427
NNNI6
I1
I0
tp428
bS'yellow'
p429
tp430
Rp431
sg9
g10
(g11
(S'S34'
p432
I0
I1
tp433
Rp434
(I3
S'|'
p435
NNNI34
I1
I0
tp436
bS'mass-tower_00357_1010000111~10-cb1'
p437
tp438
Rp439
sg20
I8
sg21
I00
sg22
g111
sa(dp440
g2
g10
(g11
(S'S6'
p441
I0
I1
tp442
Rp443
(I3
S'|'
p444
NNNI6
I1
I0
tp445
bS'yellow'
p446
tp447
Rp448
sg3
I00
sg4
I00
sg5
g10
(g11
(S'S7'
p449
I0
I1
tp450
Rp451
(I3
S'|'
p452
NNNI7
I1
I0
tp453
bS'#FFFF00'
p454
tp455
Rp456
sg6
g10
(g11
(S'S7'
p457
I0
I1
tp458
Rp459
(I3
S'|'
p460
NNNI7
I1
I0
tp461
bS'#00FFFF'
p462
tp463
Rp464
sg7
I16
sg8
g10
(g11
(S'S4'
p465
I0
I1
tp466
Rp467
(I3
S'|'
p468
NNNI4
I1
I0
tp469
bS'cyan'
p470
tp471
Rp472
sg9
g10
(g11
(S'S34'
p473
I0
I1
tp474
Rp475
(I3
S'|'
p476
NNNI34
I1
I0
tp477
bS'mass-tower_00279_1110000011~10-cb1'
p478
tp479
Rp480
sg20
I9
sg21
I01
sg22
g111
sa(dp481
g2
g10
(g11
(S'S3'
p482
I0
I1
tp483
Rp484
(I3
S'|'
p485
NNNI3
I1
I0
tp486
bS'red'
p487
tp488
Rp489
sg3
I00
sg4
I00
sg5
g10
(g11
(S'S7'
p490
I0
I1
tp491
Rp492
(I3
S'|'
p493
NNNI7
I1
I0
tp494
bS'#FF3333'
p495
tp496
Rp497
sg6
g10
(g11
(S'S7'
p498
I0
I1
tp499
Rp500
(I3
S'|'
p501
NNNI7
I1
I0
tp502
bS'#808080'
p503
tp504
Rp505
sg7
I17
sg8
g10
(g11
(S'S4'
p506
I0
I1
tp507
Rp508
(I3
S'|'
p509
NNNI4
I1
I0
tp510
bS'gray'
p511
tp512
Rp513
sg9
g10
(g11
(S'S34'
p514
I0
I1
tp515
Rp516
(I3
S'|'
p517
NNNI34
I1
I0
tp518
bS'mass-tower_00009_1100010110~10-cb1'
p519
tp520
Rp521
sg20
I10
sg21
I00
sg22
g111
sa(dp522
g2
g10
(g11
(S'S3'
p523
I0
I1
tp524
Rp525
(I3
S'|'
p526
NNNI3
I1
I0
tp527
bS'red'
p528
tp529
Rp530
sg3
I00
sg4
I00
sg5
g10
(g11
(S'S7'
p531
I0
I1
tp532
Rp533
(I3
S'|'
p534
NNNI7
I1
I0
tp535
bS'#FF3333'
p536
tp537
Rp538
sg6
g10
(g11
(S'S7'
p539
I0
I1
tp540
Rp541
(I3
S'|'
p542
NNNI7
I1
I0
tp543
bS'#3366FF'
p544
tp545
Rp546
sg7
I18
sg8
g10
(g11
(S'S4'
p547
I0
I1
tp548
Rp549
(I3
S'|'
p550
NNNI4
I1
I0
tp551
bS'blue'
p552
tp553
Rp554
sg9
g10
(g11
(S'S34'
p555
I0
I1
tp556
Rp557
(I3
S'|'
p558
NNNI34
I1
I0
tp559
bS'mass-tower_00074_0010111001~10-cb1'
p560
tp561
Rp562
sg20
I11
sg21
I00
sg22
g111
sa(dp563
g2
g10
(g11
(S'S6'
p564
I0
I1
tp565
Rp566
(I3
S'|'
p567
NNNI6
I1
I0
tp568
bS'orange'
p569
tp570
Rp571
sg3
I00
sg4
I00
sg5
g10
(g11
(S'S7'
p572
I0
I1
tp573
Rp574
(I3
S'|'
p575
NNNI7
I1
I0
tp576
bS'#FF7000'
p577
tp578
Rp579
sg6
g10
(g11
(S'S7'
p580
I0
I1
tp581
Rp582
(I3
S'|'
p583
NNNI7
I1
I0
tp584
bS'#00FFFF'
p585
tp586
Rp587
sg7
I19
sg8
g10
(g11
(S'S4'
p588
I0
I1
tp589
Rp590
(I3
S'|'
p591
NNNI4
I1
I0
tp592
bS'cyan'
p593
tp594
Rp595
sg9
g10
(g11
(S'S34'
p596
I0
I1
tp597
Rp598
(I3
S'|'
p599
NNNI34
I1
I0
tp600
bS'mass-tower_00102_0001011011~10-cb1'
p601
tp602
Rp603
sg20
I12
sg21
I00
sg22
g111
sa(dp604
g2
g10
(g11
(S'S4'
p605
I0
I1
tp606
Rp607
(I3
S'|'
p608
NNNI4
I1
I0
tp609
bS'gray'
p610
tp611
Rp612
sg3
I00
sg4
I00
sg5
g10
(g11
(S'S7'
p613
I0
I1
tp614
Rp615
(I3
S'|'
p616
NNNI7
I1
I0
tp617
bS'#808080'
p618
tp619
Rp620
sg6
g10
(g11
(S'S7'
p621
I0
I1
tp622
Rp623
(I3
S'|'
p624
NNNI7
I1
I0
tp625
bS'#FF3333'
p626
tp627
Rp628
sg7
I20
sg8
g10
(g11
(S'S3'
p629
I0
I1
tp630
Rp631
(I3
S'|'
p632
NNNI3
I1
I0
tp633
bS'red'
p634
tp635
Rp636
sg9
g10
(g11
(S'S34'
p637
I0
I1
tp638
Rp639
(I3
S'|'
p640
NNNI34
I1
I0
tp641
bS'mass-tower_00117_0110111000~10-cb1'
p642
tp643
Rp644
sg20
I13
sg21
I00
sg22
g111
sa(dp645
g2
g10
(g11
(S'S7'
p646
I0
I1
tp647
Rp648
(I3
S'|'
p649
NNNI7
I1
I0
tp650
bS'magenta'
p651
tp652
Rp653
sg3
I00
sg4
I00
sg5
g10
(g11
(S'S7'
p654
I0
I1
tp655
Rp656
(I3
S'|'
p657
NNNI7
I1
I0
tp658
bS'#FF00FF'
p659
tp660
Rp661
sg6
g10
(g11
(S'S7'
p662
I0
I1
tp663
Rp664
(I3
S'|'
p665
NNNI7
I1
I0
tp666
bS'#00FF00'
p667
tp668
Rp669
sg7
I21
sg8
g10
(g11
(S'S5'
p670
I0
I1
tp671
Rp672
(I3
S'|'
p673
NNNI5
I1
I0
tp674
bS'green'
p675
tp676
Rp677
sg9
g10
(g11
(S'S34'
p678
I0
I1
tp679
Rp680
(I3
S'|'
p681
NNNI34
I1
I0
tp682
bS'mass-tower_01264_0011111000~10-cb1'
p683
tp684
Rp685
sg20
I14
sg21
I01
sg22
g111
sa(dp686
g2
g10
(g11
(S'S7'
p687
I0
I1
tp688
Rp689
(I3
S'|'
p690
NNNI7
I1
I0
tp691
bS'magenta'
p692
tp693
Rp694
sg3
I00
sg4
I00
sg5
g10
(g11
(S'S7'
p695
I0
I1
tp696
Rp697
(I3
S'|'
p698
NNNI7
I1
I0
tp699
bS'#FF00FF'
p700
tp701
Rp702
sg6
g10
(g11
(S'S7'
p703
I0
I1
tp704
Rp705
(I3
S'|'
p706
NNNI7
I1
I0
tp707
bS'#808080'
p708
tp709
Rp710
sg7
I22
sg8
g10
(g11
(S'S4'
p711
I0
I1
tp712
Rp713
(I3
S'|'
p714
NNNI4
I1
I0
tp715
bS'gray'
p716
tp717
Rp718
sg9
g10
(g11
(S'S34'
p719
I0
I1
tp720
Rp721
(I3
S'|'
p722
NNNI34
I1
I0
tp723
bS'mass-tower_00483_1010010011~10-cb1'
p724
tp725
Rp726
sg20
I15
sg21
I01
sg22
g111
sa(dp727
g2
g10
(g11
(S'S6'
p728
I0
I1
tp729
Rp730
(I3
S'|'
p731
NNNI6
I1
I0
tp732
bS'orange'
p733
tp734
Rp735
sg3
I00
sg4
I00
sg5
g10
(g11
(S'S7'
p736
I0
I1
tp737
Rp738
(I3
S'|'
p739
NNNI7
I1
I0
tp740
bS'#FF7000'
p741
tp742
Rp743
sg6
g10
(g11
(S'S7'
p744
I0
I1
tp745
Rp746
(I3
S'|'
p747
NNNI7
I1
I0
tp748
bS'#3366FF'
p749
tp750
Rp751
sg7
I23
sg8
g10
(g11
(S'S4'
p752
I0
I1
tp753
Rp754
(I3
S'|'
p755
NNNI4
I1
I0
tp756
bS'blue'
p757
tp758
Rp759
sg9
g10
(g11
(S'S34'
p760
I0
I1
tp761
Rp762
(I3
S'|'
p763
NNNI34
I1
I0
tp764
bS'mass-tower_00222_1001101001~10-cb1'
p765
tp766
Rp767
sg20
I16
sg21
I01
sg22
g111
sa(dp768
g2
g10
(g11
(S'S5'
p769
I0
I1
tp770
Rp771
(I3
S'|'
p772
NNNI5
I1
I0
tp773
bS'green'
p774
tp775
Rp776
sg3
I00
sg4
I00
sg5
g10
(g11
(S'S7'
p777
I0
I1
tp778
Rp779
(I3
S'|'
p780
NNNI7
I1
I0
tp781
bS'#00FF00'
p782
tp783
Rp784
sg6
g10
(g11
(S'S7'
p785
I0
I1
tp786
Rp787
(I3
S'|'
p788
NNNI7
I1
I0
tp789
bS'#FF00FF'
p790
tp791
Rp792
sg7
I24
sg8
g10
(g11
(S'S7'
p793
I0
I1
tp794
Rp795
(I3
S'|'
p796
NNNI7
I1
I0
tp797
bS'magenta'
p798
tp799
Rp800
sg9
g10
(g11
(S'S34'
p801
I0
I1
tp802
Rp803
(I3
S'|'
p804
NNNI34
I1
I0
tp805
bS'mass-tower_01441_1100100101~10-cb1'
p806
tp807
Rp808
sg20
I17
sg21
I00
sg22
g111
sa(dp809
g2
g10
(g11
(S'S7'
p810
I0
I1
tp811
Rp812
(I3
S'|'
p813
NNNI7
I1
I0
tp814
bS'magenta'
p815
tp816
Rp817
sg3
I00
sg4
I00
sg5
g10
(g11
(S'S7'
p818
I0
I1
tp819
Rp820
(I3
S'|'
p821
NNNI7
I1
I0
tp822
bS'#FF00FF'
p823
tp824
Rp825
sg6
g10
(g11
(S'S7'
p826
I0
I1
tp827
Rp828
(I3
S'|'
p829
NNNI7
I1
I0
tp830
bS'#FFFF00'
p831
tp832
Rp833
sg7
I25
sg8
g10
(g11
(S'S6'
p834
I0
I1
tp835
Rp836
(I3
S'|'
p837
NNNI6
I1
I0
tp838
bS'yellow'
p839
tp840
Rp841
sg9
g10
(g11
(S'S34'
p842
I0
I1
tp843
Rp844
(I3
S'|'
p845
NNNI34
I1
I0
tp846
bS'mass-tower_00160_0011011100~10-cb1'
p847
tp848
Rp849
sg20
I18
sg21
I01
sg22
g111
sa(dp850
g2
g10
(g11
(S'S7'
p851
I0
I1
tp852
Rp853
(I3
S'|'
p854
NNNI7
I1
I0
tp855
bS'magenta'
p856
tp857
Rp858
sg3
I00
sg4
I00
sg5
g10
(g11
(S'S7'
p859
I0
I1
tp860
Rp861
(I3
S'|'
p862
NNNI7
I1
I0
tp863
bS'#FF00FF'
p864
tp865
Rp866
sg6
g10
(g11
(S'S7'
p867
I0
I1
tp868
Rp869
(I3
S'|'
p870
NNNI7
I1
I0
tp871
bS'#00FFFF'
p872
tp873
Rp874
sg7
I26
sg8
g10
(g11
(S'S4'
p875
I0
I1
tp876
Rp877
(I3
S'|'
p878
NNNI4
I1
I0
tp879
bS'cyan'
p880
tp881
Rp882
sg9
g10
(g11
(S'S34'
p883
I0
I1
tp884
Rp885
(I3
S'|'
p886
NNNI34
I1
I0
tp887
bS'mass-tower_00316_0101010101~10-cb1'
p888
tp889
Rp890
sg20
I19
sg21
I01
sg22
g111
saS'finished experiment'
p891
a(dp892
g2
Nsg3
I01
sg4
I01
sg5
Nsg6
Nsg7
I28
sg8
Nsg9
g10
(g11
(S'S14'
p893
I0
I1
tp894
Rp895
(I3
S'|'
p896
NNNI14
I1
I0
tp897
bS'stability01491'
p898
tp899
Rp900
sg20
I0
sg21
I00
sg22
S'posttest'
p901
sa(dp902
g2
Nsg3
I01
sg4
I01
sg5
Nsg6
Nsg7
I29
sg8
Nsg9
g10
(g11
(S'S14'
p903
I0
I1
tp904
Rp905
(I3
S'|'
p906
NNNI14
I1
I0
tp907
bS'stability01893'
p908
tp909
Rp910
sg20
I1
sg21
I01
sg22
g901
sa(dp911
g2
Nsg3
I01
sg4
I01
sg5
Nsg6
Nsg7
I30
sg8
Nsg9
g10
(g11
(S'S14'
p912
I0
I1
tp913
Rp914
(I3
S'|'
p915
NNNI14
I1
I0
tp916
bS'stability01178'
p917
tp918
Rp919
sg20
I2
sg21
I01
sg22
g901
sa(dp920
g2
Nsg3
I01
sg4
I01
sg5
Nsg6
Nsg7
I31
sg8
Nsg9
g10
(g11
(S'S14'
p921
I0
I1
tp922
Rp923
(I3
S'|'
p924
NNNI14
I1
I0
tp925
bS'stability01654'
p926
tp927
Rp928
sg20
I3
sg21
I00
sg22
g901
sa(dp929
g2
Nsg3
I01
sg4
I01
sg5
Nsg6
Nsg7
I32
sg8
Nsg9
g10
(g11
(S'S14'
p930
I0
I1
tp931
Rp932
(I3
S'|'
p933
NNNI14
I1
I0
tp934
bS'stability01967'
p935
tp936
Rp937
sg20
I4
sg21
I00
sg22
g901
sa(dp938
g2
Nsg3
I01
sg4
I01
sg5
Nsg6
Nsg7
I33
sg8
Nsg9
g10
(g11
(S'S14'
p939
I0
I1
tp940
Rp941
(I3
S'|'
p942
NNNI14
I1
I0
tp943
bS'stability01023'
p944
tp945
Rp946
sg20
I5
sg21
I01
sg22
g901
saS'finished posttest'
p947
a.