(lp0
(dp1
S'color1_name'
p2
NsS'video_fb'
p3
I01
sS'text_fb'
p4
I01
sS'color1'
p5
NsS'color0'
p6
NsS'color0_name'
p7
NsS'index'
p8
I0
sS'angle'
p9
cnumpy.core.multiarray
scalar
p10
(cnumpy
dtype
p11
(S'i8'
p12
I0
I1
tp13
Rp14
(I3
S'<'
p15
NNNI-1
I-1
I0
tp16
bS'A\x00\x00\x00\x00\x00\x00\x00'
p17
tp18
Rp19
sS'stimulus'
p20
g10
(g11
(S'S14'
p21
I0
I1
tp22
Rp23
(I3
S'|'
p24
NNNI14
I1
I0
tp25
bS'stability01654'
p26
tp27
Rp28
sS'trial'
p29
I0
sS'stable'
p30
I00
sS'ttype'
p31
S'training'
p32
sS'flip_colors'
p33
g10
(g11
(S'b1'
p34
I0
I1
tp35
Rp36
(I3
S'|'
p37
NNNI-1
I-1
I0
tp38
bS'\x01'
p39
tp40
Rp41
sa(dp42
g2
Nsg3
I01
sg4
I01
sg5
Nsg6
Nsg7
Nsg8
I1
sg9
g10
(g14
S'[\x00\x00\x00\x00\x00\x00\x00'
p43
tp44
Rp45
sg20
g10
(g11
(S'S14'
p46
I0
I1
tp47
Rp48
(I3
S'|'
p49
NNNI14
I1
I0
tp50
bS'stability01967'
p51
tp52
Rp53
sg29
I1
sg30
I00
sg31
g32
sg33
g41
sa(dp54
g2
Nsg3
I01
sg4
I01
sg5
Nsg6
Nsg7
Nsg8
I2
sg9
g10
(g14
S'\x7f\x00\x00\x00\x00\x00\x00\x00'
p55
tp56
Rp57
sg20
g10
(g11
(S'S14'
p58
I0
I1
tp59
Rp60
(I3
S'|'
p61
NNNI14
I1
I0
tp62
bS'stability01023'
p63
tp64
Rp65
sg29
I2
sg30
I01
sg31
g32
sg33
g41
sa(dp66
g2
Nsg3
I01
sg4
I01
sg5
Nsg6
Nsg7
Nsg8
I3
sg9
g10
(g14
S'D\x01\x00\x00\x00\x00\x00\x00'
p67
tp68
Rp69
sg20
g10
(g11
(S'S14'
p70
I0
I1
tp71
Rp72
(I3
S'|'
p73
NNNI14
I1
I0
tp74
bS'stability01491'
p75
tp76
Rp77
sg29
I3
sg30
I00
sg31
g32
sg33
g10
(g36
S'\x00'
p78
tp79
Rp80
sa(dp81
g2
Nsg3
I01
sg4
I01
sg5
Nsg6
Nsg7
Nsg8
I4
sg9
g10
(g14
S'\x89\x00\x00\x00\x00\x00\x00\x00'
p82
tp83
Rp84
sg20
g10
(g11
(S'S14'
p85
I0
I1
tp86
Rp87
(I3
S'|'
p88
NNNI14
I1
I0
tp89
bS'stability01178'
p90
tp91
Rp92
sg29
I4
sg30
I01
sg31
g32
sg33
g80
sa(dp93
g2
Nsg3
I01
sg4
I01
sg5
Nsg6
Nsg7
Nsg8
I5
sg9
g10
(g14
S'o\x00\x00\x00\x00\x00\x00\x00'
p94
tp95
Rp96
sg20
g10
(g11
(S'S14'
p97
I0
I1
tp98
Rp99
(I3
S'|'
p100
NNNI14
I1
I0
tp101
bS'stability01893'
p102
tp103
Rp104
sg29
I5
sg30
I01
sg31
g32
sg33
g80
saS'finished training'
p105
a(dp106
g2
g10
(g11
(S'S4'
p107
I0
I1
tp108
Rp109
(I3
S'|'
p110
NNNI4
I1
I0
tp111
bS'gray'
p112
tp113
Rp114
sg3
I00
sg4
I00
sg5
g10
(g11
(S'S7'
p115
I0
I1
tp116
Rp117
(I3
S'|'
p118
NNNI7
I1
I0
tp119
bS'#808080'
p120
tp121
Rp122
sg6
g10
(g11
(S'S7'
p123
I0
I1
tp124
Rp125
(I3
S'|'
p126
NNNI7
I1
I0
tp127
bS'#00FFFF'
p128
tp129
Rp130
sg7
g10
(g11
(S'S4'
p131
I0
I1
tp132
Rp133
(I3
S'|'
p134
NNNI4
I1
I0
tp135
bS'cyan'
p136
tp137
Rp138
sg8
I7
sg9
g10
(g14
S'f\x01\x00\x00\x00\x00\x00\x00'
p139
tp140
Rp141
sg20
g10
(g11
(S'S34'
p142
I0
I1
tp143
Rp144
(I3
S'|'
p145
NNNI34
I1
I0
tp146
bS'mass-tower_00015_1010101010~10-cb1'
p147
tp148
Rp149
sg29
I0
sg30
I00
sg31
S'experiment'
p150
sg33
g41
sa(dp151
g2
g10
(g11
(S'S5'
p152
I0
I1
tp153
Rp154
(I3
S'|'
p155
NNNI5
I1
I0
tp156
bS'green'
p157
tp158
Rp159
sg3
I00
sg4
I00
sg5
g10
(g11
(S'S7'
p160
I0
I1
tp161
Rp162
(I3
S'|'
p163
NNNI7
I1
I0
tp164
bS'#00FF00'
p165
tp166
Rp167
sg6
g10
(g11
(S'S7'
p168
I0
I1
tp169
Rp170
(I3
S'|'
p171
NNNI7
I1
I0
tp172
bS'#FF00FF'
p173
tp174
Rp175
sg7
g10
(g11
(S'S7'
p176
I0
I1
tp177
Rp178
(I3
S'|'
p179
NNNI7
I1
I0
tp180
bS'magenta'
p181
tp182
Rp183
sg8
I8
sg9
g10
(g14
S'O\x01\x00\x00\x00\x00\x00\x00'
p184
tp185
Rp186
sg20
g10
(g11
(S'S34'
p187
I0
I1
tp188
Rp189
(I3
S'|'
p190
NNNI34
I1
I0
tp191
bS'mass-tower_01441_1100100101~10-cb1'
p192
tp193
Rp194
sg29
I1
sg30
I00
sg31
g150
sg33
g80
sa(dp195
g2
g10
(g11
(S'S3'
p196
I0
I1
tp197
Rp198
(I3
S'|'
p199
NNNI3
I1
I0
tp200
bS'red'
p201
tp202
Rp203
sg3
I00
sg4
I00
sg5
g10
(g11
(S'S7'
p204
I0
I1
tp205
Rp206
(I3
S'|'
p207
NNNI7
I1
I0
tp208
bS'#FF3333'
p209
tp210
Rp211
sg6
g10
(g11
(S'S7'
p212
I0
I1
tp213
Rp214
(I3
S'|'
p215
NNNI7
I1
I0
tp216
bS'#3366FF'
p217
tp218
Rp219
sg7
g10
(g11
(S'S4'
p220
I0
I1
tp221
Rp222
(I3
S'|'
p223
NNNI4
I1
I0
tp224
bS'blue'
p225
tp226
Rp227
sg8
I9
sg9
g10
(g14
S'X\x00\x00\x00\x00\x00\x00\x00'
p228
tp229
Rp230
sg20
g10
(g11
(S'S34'
p231
I0
I1
tp232
Rp233
(I3
S'|'
p234
NNNI34
I1
I0
tp235
bS'mass-tower_00074_0010111001~10-cb1'
p236
tp237
Rp238
sg29
I2
sg30
I00
sg31
g150
sg33
g80
sa(dp239
g2
g10
(g11
(S'S4'
p240
I0
I1
tp241
Rp242
(I3
S'|'
p243
NNNI4
I1
I0
tp244
bS'cyan'
p245
tp246
Rp247
sg3
I00
sg4
I00
sg5
g10
(g11
(S'S7'
p248
I0
I1
tp249
Rp250
(I3
S'|'
p251
NNNI7
I1
I0
tp252
bS'#00FFFF'
p253
tp254
Rp255
sg6
g10
(g11
(S'S7'
p256
I0
I1
tp257
Rp258
(I3
S'|'
p259
NNNI7
I1
I0
tp260
bS'#FFFF00'
p261
tp262
Rp263
sg7
g10
(g11
(S'S6'
p264
I0
I1
tp265
Rp266
(I3
S'|'
p267
NNNI6
I1
I0
tp268
bS'yellow'
p269
tp270
Rp271
sg8
I10
sg9
g10
(g14
S' \x01\x00\x00\x00\x00\x00\x00'
p272
tp273
Rp274
sg20
g10
(g11
(S'S34'
p275
I0
I1
tp276
Rp277
(I3
S'|'
p278
NNNI34
I1
I0
tp279
bS'mass-tower_00193_1010101010~10-cb1'
p280
tp281
Rp282
sg29
I3
sg30
I01
sg31
g150
sg33
g41
sa(dp283
g2
g10
(g11
(S'S4'
p284
I0
I1
tp285
Rp286
(I3
S'|'
p287
NNNI4
I1
I0
tp288
bS'blue'
p289
tp290
Rp291
sg3
I00
sg4
I00
sg5
g10
(g11
(S'S7'
p292
I0
I1
tp293
Rp294
(I3
S'|'
p295
NNNI7
I1
I0
tp296
bS'#3366FF'
p297
tp298
Rp299
sg6
g10
(g11
(S'S7'
p300
I0
I1
tp301
Rp302
(I3
S'|'
p303
NNNI7
I1
I0
tp304
bS'#00FF00'
p305
tp306
Rp307
sg7
g10
(g11
(S'S5'
p308
I0
I1
tp309
Rp310
(I3
S'|'
p311
NNNI5
I1
I0
tp312
bS'green'
p313
tp314
Rp315
sg8
I11
sg9
g10
(g14
S'\xbc\x00\x00\x00\x00\x00\x00\x00'
p316
tp317
Rp318
sg20
g10
(g11
(S'S34'
p319
I0
I1
tp320
Rp321
(I3
S'|'
p322
NNNI34
I1
I0
tp323
bS'mass-tower_00260_0110110100~10-cb1'
p324
tp325
Rp326
sg29
I4
sg30
I01
sg31
g150
sg33
g80
sa(dp327
g2
g10
(g11
(S'S6'
p328
I0
I1
tp329
Rp330
(I3
S'|'
p331
NNNI6
I1
I0
tp332
bS'orange'
p333
tp334
Rp335
sg3
I00
sg4
I00
sg5
g10
(g11
(S'S7'
p336
I0
I1
tp337
Rp338
(I3
S'|'
p339
NNNI7
I1
I0
tp340
bS'#FF7000'
p341
tp342
Rp343
sg6
g10
(g11
(S'S7'
p344
I0
I1
tp345
Rp346
(I3
S'|'
p347
NNNI7
I1
I0
tp348
bS'#00FFFF'
p349
tp350
Rp351
sg7
g10
(g11
(S'S4'
p352
I0
I1
tp353
Rp354
(I3
S'|'
p355
NNNI4
I1
I0
tp356
bS'cyan'
p357
tp358
Rp359
sg8
I12
sg9
g10
(g14
S'\x0f\x01\x00\x00\x00\x00\x00\x00'
p360
tp361
Rp362
sg20
g10
(g11
(S'S34'
p363
I0
I1
tp364
Rp365
(I3
S'|'
p366
NNNI34
I1
I0
tp367
bS'mass-tower_00102_0001011011~10-cb1'
p368
tp369
Rp370
sg29
I5
sg30
I00
sg31
g150
sg33
g41
sa(dp371
g2
g10
(g11
(S'S7'
p372
I0
I1
tp373
Rp374
(I3
S'|'
p375
NNNI7
I1
I0
tp376
bS'magenta'
p377
tp378
Rp379
sg3
I00
sg4
I00
sg5
g10
(g11
(S'S7'
p380
I0
I1
tp381
Rp382
(I3
S'|'
p383
NNNI7
I1
I0
tp384
bS'#FF00FF'
p385
tp386
Rp387
sg6
g10
(g11
(S'S7'
p388
I0
I1
tp389
Rp390
(I3
S'|'
p391
NNNI7
I1
I0
tp392
bS'#FFFF00'
p393
tp394
Rp395
sg7
g10
(g11
(S'S6'
p396
I0
I1
tp397
Rp398
(I3
S'|'
p399
NNNI6
I1
I0
tp400
bS'yellow'
p401
tp402
Rp403
sg8
I13
sg9
g10
(g14
S'/\x00\x00\x00\x00\x00\x00\x00'
p404
tp405
Rp406
sg20
g10
(g11
(S'S34'
p407
I0
I1
tp408
Rp409
(I3
S'|'
p410
NNNI34
I1
I0
tp411
bS'mass-tower_00160_0011011100~10-cb1'
p412
tp413
Rp414
sg29
I6
sg30
I01
sg31
g150
sg33
g41
sa(dp415
g2
g10
(g11
(S'S5'
p416
I0
I1
tp417
Rp418
(I3
S'|'
p419
NNNI5
I1
I0
tp420
bS'green'
p421
tp422
Rp423
sg3
I00
sg4
I00
sg5
g10
(g11
(S'S7'
p424
I0
I1
tp425
Rp426
(I3
S'|'
p427
NNNI7
I1
I0
tp428
bS'#00FF00'
p429
tp430
Rp431
sg6
g10
(g11
(S'S7'
p432
I0
I1
tp433
Rp434
(I3
S'|'
p435
NNNI7
I1
I0
tp436
bS'#FF7000'
p437
tp438
Rp439
sg7
g10
(g11
(S'S6'
p440
I0
I1
tp441
Rp442
(I3
S'|'
p443
NNNI6
I1
I0
tp444
bS'orange'
p445
tp446
Rp447
sg8
I14
sg9
g10
(g14
S'b\x00\x00\x00\x00\x00\x00\x00'
p448
tp449
Rp450
sg20
g10
(g11
(S'S34'
p451
I0
I1
tp452
Rp453
(I3
S'|'
p454
NNNI34
I1
I0
tp455
bS'mass-tower_00080_0110010110~10-cb1'
p456
tp457
Rp458
sg29
I7
sg30
I01
sg31
g150
sg33
g41
sa(dp459
g2
g10
(g11
(S'S3'
p460
I0
I1
tp461
Rp462
(I3
S'|'
p463
NNNI3
I1
I0
tp464
bS'red'
p465
tp466
Rp467
sg3
I00
sg4
I00
sg5
g10
(g11
(S'S7'
p468
I0
I1
tp469
Rp470
(I3
S'|'
p471
NNNI7
I1
I0
tp472
bS'#FF3333'
p473
tp474
Rp475
sg6
g10
(g11
(S'S7'
p476
I0
I1
tp477
Rp478
(I3
S'|'
p479
NNNI7
I1
I0
tp480
bS'#808080'
p481
tp482
Rp483
sg7
g10
(g11
(S'S4'
p484
I0
I1
tp485
Rp486
(I3
S'|'
p487
NNNI4
I1
I0
tp488
bS'gray'
p489
tp490
Rp491
sg8
I15
sg9
g10
(g14
S'E\x01\x00\x00\x00\x00\x00\x00'
p492
tp493
Rp494
sg20
g10
(g11
(S'S34'
p495
I0
I1
tp496
Rp497
(I3
S'|'
p498
NNNI34
I1
I0
tp499
bS'mass-tower_00009_1100010110~10-cb1'
p500
tp501
Rp502
sg29
I8
sg30
I00
sg31
g150
sg33
g41
sa(dp503
g2
g10
(g11
(S'S4'
p504
I0
I1
tp505
Rp506
(I3
S'|'
p507
NNNI4
I1
I0
tp508
bS'blue'
p509
tp510
Rp511
sg3
I00
sg4
I00
sg5
g10
(g11
(S'S7'
p512
I0
I1
tp513
Rp514
(I3
S'|'
p515
NNNI7
I1
I0
tp516
bS'#3366FF'
p517
tp518
Rp519
sg6
g10
(g11
(S'S7'
p520
I0
I1
tp521
Rp522
(I3
S'|'
p523
NNNI7
I1
I0
tp524
bS'#FFFF00'
p525
tp526
Rp527
sg7
g10
(g11
(S'S6'
p528
I0
I1
tp529
Rp530
(I3
S'|'
p531
NNNI6
I1
I0
tp532
bS'yellow'
p533
tp534
Rp535
sg8
I16
sg9
g10
(g14
S'\xec\x00\x00\x00\x00\x00\x00\x00'
p536
tp537
Rp538
sg20
g10
(g11
(S'S34'
p539
I0
I1
tp540
Rp541
(I3
S'|'
p542
NNNI34
I1
I0
tp543
bS'mass-tower_00524_1101001010~10-cb1'
p544
tp545
Rp546
sg29
I9
sg30
I01
sg31
g150
sg33
g80
sa(dp547
g2
g10
(g11
(S'S4'
p548
I0
I1
tp549
Rp550
(I3
S'|'
p551
NNNI4
I1
I0
tp552
bS'gray'
p553
tp554
Rp555
sg3
I00
sg4
I00
sg5
g10
(g11
(S'S7'
p556
I0
I1
tp557
Rp558
(I3
S'|'
p559
NNNI7
I1
I0
tp560
bS'#808080'
p561
tp562
Rp563
sg6
g10
(g11
(S'S7'
p564
I0
I1
tp565
Rp566
(I3
S'|'
p567
NNNI7
I1
I0
tp568
bS'#FF00FF'
p569
tp570
Rp571
sg7
g10
(g11
(S'S7'
p572
I0
I1
tp573
Rp574
(I3
S'|'
p575
NNNI7
I1
I0
tp576
bS'magenta'
p577
tp578
Rp579
sg8
I17
sg9
g10
(g14
S'~\x00\x00\x00\x00\x00\x00\x00'
p580
tp581
Rp582
sg20
g10
(g11
(S'S34'
p583
I0
I1
tp584
Rp585
(I3
S'|'
p586
NNNI34
I1
I0
tp587
bS'mass-tower_00271_1011000101~10-cb1'
p588
tp589
Rp590
sg29
I10
sg30
I00
sg31
g150
sg33
g41
sa(dp591
g2
g10
(g11
(S'S3'
p592
I0
I1
tp593
Rp594
(I3
S'|'
p595
NNNI3
I1
I0
tp596
bS'red'
p597
tp598
Rp599
sg3
I00
sg4
I00
sg5
g10
(g11
(S'S7'
p600
I0
I1
tp601
Rp602
(I3
S'|'
p603
NNNI7
I1
I0
tp604
bS'#FF3333'
p605
tp606
Rp607
sg6
g10
(g11
(S'S7'
p608
I0
I1
tp609
Rp610
(I3
S'|'
p611
NNNI7
I1
I0
tp612
bS'#FFFF00'
p613
tp614
Rp615
sg7
g10
(g11
(S'S6'
p616
I0
I1
tp617
Rp618
(I3
S'|'
p619
NNNI6
I1
I0
tp620
bS'yellow'
p621
tp622
Rp623
sg8
I18
sg9
g10
(g14
S'\xd1\x00\x00\x00\x00\x00\x00\x00'
p624
tp625
Rp626
sg20
g10
(g11
(S'S34'
p627
I0
I1
tp628
Rp629
(I3
S'|'
p630
NNNI34
I1
I0
tp631
bS'mass-tower_00021_1010010110~10-cb1'
p632
tp633
Rp634
sg29
I11
sg30
I00
sg31
g150
sg33
g80
sa(dp635
g2
g10
(g11
(S'S7'
p636
I0
I1
tp637
Rp638
(I3
S'|'
p639
NNNI7
I1
I0
tp640
bS'magenta'
p641
tp642
Rp643
sg3
I00
sg4
I00
sg5
g10
(g11
(S'S7'
p644
I0
I1
tp645
Rp646
(I3
S'|'
p647
NNNI7
I1
I0
tp648
bS'#FF00FF'
p649
tp650
Rp651
sg6
g10
(g11
(S'S7'
p652
I0
I1
tp653
Rp654
(I3
S'|'
p655
NNNI7
I1
I0
tp656
bS'#00FF00'
p657
tp658
Rp659
sg7
g10
(g11
(S'S5'
p660
I0
I1
tp661
Rp662
(I3
S'|'
p663
NNNI5
I1
I0
tp664
bS'green'
p665
tp666
Rp667
sg8
I19
sg9
g10
(g14
S'c\x01\x00\x00\x00\x00\x00\x00'
p668
tp669
Rp670
sg20
g10
(g11
(S'S34'
p671
I0
I1
tp672
Rp673
(I3
S'|'
p674
NNNI34
I1
I0
tp675
bS'mass-tower_01264_0011111000~10-cb1'
p676
tp677
Rp678
sg29
I12
sg30
I01
sg31
g150
sg33
g41
sa(dp679
g2
g10
(g11
(S'S6'
p680
I0
I1
tp681
Rp682
(I3
S'|'
p683
NNNI6
I1
I0
tp684
bS'yellow'
p685
tp686
Rp687
sg3
I00
sg4
I00
sg5
g10
(g11
(S'S7'
p688
I0
I1
tp689
Rp690
(I3
S'|'
p691
NNNI7
I1
I0
tp692
bS'#FFFF00'
p693
tp694
Rp695
sg6
g10
(g11
(S'S7'
p696
I0
I1
tp697
Rp698
(I3
S'|'
p699
NNNI7
I1
I0
tp700
bS'#00FFFF'
p701
tp702
Rp703
sg7
g10
(g11
(S'S4'
p704
I0
I1
tp705
Rp706
(I3
S'|'
p707
NNNI4
I1
I0
tp708
bS'cyan'
p709
tp710
Rp711
sg8
I20
sg9
g10
(g14
S'\xfd\x00\x00\x00\x00\x00\x00\x00'
p712
tp713
Rp714
sg20
g10
(g11
(S'S34'
p715
I0
I1
tp716
Rp717
(I3
S'|'
p718
NNNI34
I1
I0
tp719
bS'mass-tower_00279_1110000011~10-cb1'
p720
tp721
Rp722
sg29
I13
sg30
I01
sg31
g150
sg33
g80
sa(dp723
g2
g10
(g11
(S'S4'
p724
I0
I1
tp725
Rp726
(I3
S'|'
p727
NNNI4
I1
I0
tp728
bS'gray'
p729
tp730
Rp731
sg3
I00
sg4
I00
sg5
g10
(g11
(S'S7'
p732
I0
I1
tp733
Rp734
(I3
S'|'
p735
NNNI7
I1
I0
tp736
bS'#808080'
p737
tp738
Rp739
sg6
g10
(g11
(S'S7'
p740
I0
I1
tp741
Rp742
(I3
S'|'
p743
NNNI7
I1
I0
tp744
bS'#FF3333'
p745
tp746
Rp747
sg7
g10
(g11
(S'S3'
p748
I0
I1
tp749
Rp750
(I3
S'|'
p751
NNNI3
I1
I0
tp752
bS'red'
p753
tp754
Rp755
sg8
I21
sg9
g10
(g14
S'D\x00\x00\x00\x00\x00\x00\x00'
p756
tp757
Rp758
sg20
g10
(g11
(S'S34'
p759
I0
I1
tp760
Rp761
(I3
S'|'
p762
NNNI34
I1
I0
tp763
bS'mass-tower_00117_0110111000~10-cb1'
p764
tp765
Rp766
sg29
I14
sg30
I00
sg31
g150
sg33
g41
sa(dp767
g2
g10
(g11
(S'S4'
p768
I0
I1
tp769
Rp770
(I3
S'|'
p771
NNNI4
I1
I0
tp772
bS'blue'
p773
tp774
Rp775
sg3
I00
sg4
I00
sg5
g10
(g11
(S'S7'
p776
I0
I1
tp777
Rp778
(I3
S'|'
p779
NNNI7
I1
I0
tp780
bS'#3366FF'
p781
tp782
Rp783
sg6
g10
(g11
(S'S7'
p784
I0
I1
tp785
Rp786
(I3
S'|'
p787
NNNI7
I1
I0
tp788
bS'#FFFF00'
p789
tp790
Rp791
sg7
g10
(g11
(S'S6'
p792
I0
I1
tp793
Rp794
(I3
S'|'
p795
NNNI6
I1
I0
tp796
bS'yellow'
p797
tp798
Rp799
sg8
I22
sg9
g10
(g14
S'\x1c\x00\x00\x00\x00\x00\x00\x00'
p800
tp801
Rp802
sg20
g10
(g11
(S'S34'
p803
I0
I1
tp804
Rp805
(I3
S'|'
p806
NNNI34
I1
I0
tp807
bS'mass-tower_00357_1010000111~10-cb1'
p808
tp809
Rp810
sg29
I15
sg30
I00
sg31
g150
sg33
g80
sa(dp811
g2
g10
(g11
(S'S7'
p812
I0
I1
tp813
Rp814
(I3
S'|'
p815
NNNI7
I1
I0
tp816
bS'magenta'
p817
tp818
Rp819
sg3
I00
sg4
I00
sg5
g10
(g11
(S'S7'
p820
I0
I1
tp821
Rp822
(I3
S'|'
p823
NNNI7
I1
I0
tp824
bS'#FF00FF'
p825
tp826
Rp827
sg6
g10
(g11
(S'S7'
p828
I0
I1
tp829
Rp830
(I3
S'|'
p831
NNNI7
I1
I0
tp832
bS'#808080'
p833
tp834
Rp835
sg7
g10
(g11
(S'S4'
p836
I0
I1
tp837
Rp838
(I3
S'|'
p839
NNNI4
I1
I0
tp840
bS'gray'
p841
tp842
Rp843
sg8
I23
sg9
g10
(g14
S'\x0e\x00\x00\x00\x00\x00\x00\x00'
p844
tp845
Rp846
sg20
g10
(g11
(S'S34'
p847
I0
I1
tp848
Rp849
(I3
S'|'
p850
NNNI34
I1
I0
tp851
bS'mass-tower_00483_1010010011~10-cb1'
p852
tp853
Rp854
sg29
I16
sg30
I01
sg31
g150
sg33
g41
sa(dp855
g2
g10
(g11
(S'S6'
p856
I0
I1
tp857
Rp858
(I3
S'|'
p859
NNNI6
I1
I0
tp860
bS'orange'
p861
tp862
Rp863
sg3
I00
sg4
I00
sg5
g10
(g11
(S'S7'
p864
I0
I1
tp865
Rp866
(I3
S'|'
p867
NNNI7
I1
I0
tp868
bS'#FF7000'
p869
tp870
Rp871
sg6
g10
(g11
(S'S7'
p872
I0
I1
tp873
Rp874
(I3
S'|'
p875
NNNI7
I1
I0
tp876
bS'#3366FF'
p877
tp878
Rp879
sg7
g10
(g11
(S'S4'
p880
I0
I1
tp881
Rp882
(I3
S'|'
p883
NNNI4
I1
I0
tp884
bS'blue'
p885
tp886
Rp887
sg8
I24
sg9
g10
(g14
S'4\x00\x00\x00\x00\x00\x00\x00'
p888
tp889
Rp890
sg20
g10
(g11
(S'S34'
p891
I0
I1
tp892
Rp893
(I3
S'|'
p894
NNNI34
I1
I0
tp895
bS'mass-tower_00222_1001101001~10-cb1'
p896
tp897
Rp898
sg29
I17
sg30
I01
sg31
g150
sg33
g80
sa(dp899
g2
g10
(g11
(S'S5'
p900
I0
I1
tp901
Rp902
(I3
S'|'
p903
NNNI5
I1
I0
tp904
bS'green'
p905
tp906
Rp907
sg3
I00
sg4
I00
sg5
g10
(g11
(S'S7'
p908
I0
I1
tp909
Rp910
(I3
S'|'
p911
NNNI7
I1
I0
tp912
bS'#00FF00'
p913
tp914
Rp915
sg6
g10
(g11
(S'S7'
p916
I0
I1
tp917
Rp918
(I3
S'|'
p919
NNNI7
I1
I0
tp920
bS'#808080'
p921
tp922
Rp923
sg7
g10
(g11
(S'S4'
p924
I0
I1
tp925
Rp926
(I3
S'|'
p927
NNNI4
I1
I0
tp928
bS'gray'
p929
tp930
Rp931
sg8
I25
sg9
g10
(g14
S'\xce\x00\x00\x00\x00\x00\x00\x00'
p932
tp933
Rp934
sg20
g10
(g11
(S'S34'
p935
I0
I1
tp936
Rp937
(I3
S'|'
p938
NNNI34
I1
I0
tp939
bS'mass-tower_00018_0001011101~10-cb1'
p940
tp941
Rp942
sg29
I18
sg30
I00
sg31
g150
sg33
g80
sa(dp943
g2
g10
(g11
(S'S7'
p944
I0
I1
tp945
Rp946
(I3
S'|'
p947
NNNI7
I1
I0
tp948
bS'magenta'
p949
tp950
Rp951
sg3
I00
sg4
I00
sg5
g10
(g11
(S'S7'
p952
I0
I1
tp953
Rp954
(I3
S'|'
p955
NNNI7
I1
I0
tp956
bS'#FF00FF'
p957
tp958
Rp959
sg6
g10
(g11
(S'S7'
p960
I0
I1
tp961
Rp962
(I3
S'|'
p963
NNNI7
I1
I0
tp964
bS'#00FFFF'
p965
tp966
Rp967
sg7
g10
(g11
(S'S4'
p968
I0
I1
tp969
Rp970
(I3
S'|'
p971
NNNI4
I1
I0
tp972
bS'cyan'
p973
tp974
Rp975
sg8
I26
sg9
g10
(g14
S'\x0e\x00\x00\x00\x00\x00\x00\x00'
p976
tp977
Rp978
sg20
g10
(g11
(S'S34'
p979
I0
I1
tp980
Rp981
(I3
S'|'
p982
NNNI34
I1
I0
tp983
bS'mass-tower_00316_0101010101~10-cb1'
p984
tp985
Rp986
sg29
I19
sg30
I01
sg31
g150
sg33
g80
saS'finished experiment'
p987
a(dp988
g2
Nsg3
I01
sg4
I01
sg5
Nsg6
Nsg7
Nsg8
I28
sg9
g69
sg20
g10
(g11
(S'S14'
p989
I0
I1
tp990
Rp991
(I3
S'|'
p992
NNNI14
I1
I0
tp993
bS'stability01491'
p994
tp995
Rp996
sg29
I0
sg30
I00
sg31
S'posttest'
p997
sg33
g80
sa(dp998
g2
Nsg3
I01
sg4
I01
sg5
Nsg6
Nsg7
Nsg8
I29
sg9
g96
sg20
g10
(g11
(S'S14'
p999
I0
I1
tp1000
Rp1001
(I3
S'|'
p1002
NNNI14
I1
I0
tp1003
bS'stability01893'
p1004
tp1005
Rp1006
sg29
I1
sg30
I01
sg31
g997
sg33
g41
sa(dp1007
g2
Nsg3
I01
sg4
I01
sg5
Nsg6
Nsg7
Nsg8
I30
sg9
g57
sg20
g10
(g11
(S'S14'
p1008
I0
I1
tp1009
Rp1010
(I3
S'|'
p1011
NNNI14
I1
I0
tp1012
bS'stability01023'
p1013
tp1014
Rp1015
sg29
I2
sg30
I01
sg31
g997
sg33
g41
sa(dp1016
g2
Nsg3
I01
sg4
I01
sg5
Nsg6
Nsg7
Nsg8
I31
sg9
g84
sg20
g10
(g11
(S'S14'
p1017
I0
I1
tp1018
Rp1019
(I3
S'|'
p1020
NNNI14
I1
I0
tp1021
bS'stability01178'
p1022
tp1023
Rp1024
sg29
I3
sg30
I01
sg31
g997
sg33
g41
sa(dp1025
g2
Nsg3
I01
sg4
I01
sg5
Nsg6
Nsg7
Nsg8
I32
sg9
g19
sg20
g10
(g11
(S'S14'
p1026
I0
I1
tp1027
Rp1028
(I3
S'|'
p1029
NNNI14
I1
I0
tp1030
bS'stability01654'
p1031
tp1032
Rp1033
sg29
I4
sg30
I00
sg31
g997
sg33
g80
sa(dp1034
g2
Nsg3
I01
sg4
I01
sg5
Nsg6
Nsg7
Nsg8
I33
sg9
g45
sg20
g10
(g11
(S'S14'
p1035
I0
I1
tp1036
Rp1037
(I3
S'|'
p1038
NNNI14
I1
I0
tp1039
bS'stability01967'
p1040
tp1041
Rp1042
sg29
I5
sg30
I00
sg31
g997
sg33
g80
saS'finished posttest'
p1043
a.