(lp0
(dp1
S'color1'
p2
NsS'trial'
p3
I0
sS'color0'
p4
NsS'index'
p5
I0
sS'stimulus'
p6
cnumpy.core.multiarray
scalar
p7
(cnumpy
dtype
p8
(S'S14'
p9
I0
I1
tp10
Rp11
(I3
S'|'
p12
NNNI14
I1
I0
tp13
bS'stability01654'
p14
tp15
Rp16
sS'ttype'
p17
S'training'
p18
sS'stable'
p19
I00
sS'video_fb'
p20
I01
sS'text_fb'
p21
I01
sa(dp22
g2
Nsg3
I1
sg4
Nsg5
I1
sg6
g7
(g8
(S'S14'
p23
I0
I1
tp24
Rp25
(I3
S'|'
p26
NNNI14
I1
I0
tp27
bS'stability01967'
p28
tp29
Rp30
sg17
g18
sg19
I00
sg20
I01
sg21
I01
sa(dp31
g2
Nsg3
I2
sg4
Nsg5
I2
sg6
g7
(g8
(S'S14'
p32
I0
I1
tp33
Rp34
(I3
S'|'
p35
NNNI14
I1
I0
tp36
bS'stability01023'
p37
tp38
Rp39
sg17
g18
sg19
I01
sg20
I01
sg21
I01
sa(dp40
g2
Nsg3
I3
sg4
Nsg5
I3
sg6
g7
(g8
(S'S14'
p41
I0
I1
tp42
Rp43
(I3
S'|'
p44
NNNI14
I1
I0
tp45
bS'stability01491'
p46
tp47
Rp48
sg17
g18
sg19
I00
sg20
I01
sg21
I01
sa(dp49
g2
Nsg3
I4
sg4
Nsg5
I4
sg6
g7
(g8
(S'S14'
p50
I0
I1
tp51
Rp52
(I3
S'|'
p53
NNNI14
I1
I0
tp54
bS'stability01178'
p55
tp56
Rp57
sg17
g18
sg19
I01
sg20
I01
sg21
I01
sa(dp58
g2
Nsg3
I5
sg4
Nsg5
I5
sg6
g7
(g8
(S'S14'
p59
I0
I1
tp60
Rp61
(I3
S'|'
p62
NNNI14
I1
I0
tp63
bS'stability01893'
p64
tp65
Rp66
sg17
g18
sg19
I01
sg20
I01
sg21
I01
saS'finished training'
p67
a(dp68
g2
g7
(g8
(S'S7'
p69
I0
I1
tp70
Rp71
(I3
S'|'
p72
NNNI7
I1
I0
tp73
bS'#FF0033'
p74
tp75
Rp76
sg3
I0
sg4
g7
(g8
(S'S7'
p77
I0
I1
tp78
Rp79
(I3
S'|'
p80
NNNI7
I1
I0
tp81
bS'#0033FF'
p82
tp83
Rp84
sg5
I7
sg6
g7
(g8
(S'S34'
p85
I0
I1
tp86
Rp87
(I3
S'|'
p88
NNNI34
I1
I0
tp89
bS'mass-tower_00271_1011000101~10-cb1'
p90
tp91
Rp92
sg17
S'experiment'
p93
sg19
I00
sg20
I00
sg21
I00
sa(dp94
g2
g7
(g8
(S'S7'
p95
I0
I1
tp96
Rp97
(I3
S'|'
p98
NNNI7
I1
I0
tp99
bS'#FF00FF'
p100
tp101
Rp102
sg3
I1
sg4
g7
(g8
(S'S7'
p103
I0
I1
tp104
Rp105
(I3
S'|'
p106
NNNI7
I1
I0
tp107
bS'#FFFF00'
p108
tp109
Rp110
sg5
I8
sg6
g7
(g8
(S'S34'
p111
I0
I1
tp112
Rp113
(I3
S'|'
p114
NNNI34
I1
I0
tp115
bS'mass-tower_00080_0110010110~10-cb1'
p116
tp117
Rp118
sg17
g93
sg19
I01
sg20
I00
sg21
I00
sa(dp119
g2
g7
(g8
(S'S7'
p120
I0
I1
tp121
Rp122
(I3
S'|'
p123
NNNI7
I1
I0
tp124
bS'#FFFF00'
p125
tp126
Rp127
sg3
I2
sg4
g7
(g8
(S'S7'
p128
I0
I1
tp129
Rp130
(I3
S'|'
p131
NNNI7
I1
I0
tp132
bS'#0033FF'
p133
tp134
Rp135
sg5
I9
sg6
g7
(g8
(S'S34'
p136
I0
I1
tp137
Rp138
(I3
S'|'
p139
NNNI34
I1
I0
tp140
bS'mass-tower_00015_1010101010~10-cb1'
p141
tp142
Rp143
sg17
g93
sg19
I00
sg20
I00
sg21
I00
sa(dp144
g2
g7
(g8
(S'S7'
p145
I0
I1
tp146
Rp147
(I3
S'|'
p148
NNNI7
I1
I0
tp149
bS'#FFFF00'
p150
tp151
Rp152
sg3
I3
sg4
g7
(g8
(S'S7'
p153
I0
I1
tp154
Rp155
(I3
S'|'
p156
NNNI7
I1
I0
tp157
bS'#FF0033'
p158
tp159
Rp160
sg5
I10
sg6
g7
(g8
(S'S34'
p161
I0
I1
tp162
Rp163
(I3
S'|'
p164
NNNI34
I1
I0
tp165
bS'mass-tower_00524_1101001010~10-cb1'
p166
tp167
Rp168
sg17
g93
sg19
I01
sg20
I00
sg21
I00
sa(dp169
g2
g7
(g8
(S'S7'
p170
I0
I1
tp171
Rp172
(I3
S'|'
p173
NNNI7
I1
I0
tp174
bS'#FFFF00'
p175
tp176
Rp177
sg3
I4
sg4
g7
(g8
(S'S7'
p178
I0
I1
tp179
Rp180
(I3
S'|'
p181
NNNI7
I1
I0
tp182
bS'#FF00FF'
p183
tp184
Rp185
sg5
I11
sg6
g7
(g8
(S'S34'
p186
I0
I1
tp187
Rp188
(I3
S'|'
p189
NNNI34
I1
I0
tp190
bS'mass-tower_00260_0110110100~10-cb1'
p191
tp192
Rp193
sg17
g93
sg19
I01
sg20
I00
sg21
I00
sa(dp194
g2
g7
(g8
(S'S7'
p195
I0
I1
tp196
Rp197
(I3
S'|'
p198
NNNI7
I1
I0
tp199
bS'#0033FF'
p200
tp201
Rp202
sg3
I5
sg4
g7
(g8
(S'S7'
p203
I0
I1
tp204
Rp205
(I3
S'|'
p206
NNNI7
I1
I0
tp207
bS'#FF00FF'
p208
tp209
Rp210
sg5
I12
sg6
g7
(g8
(S'S34'
p211
I0
I1
tp212
Rp213
(I3
S'|'
p214
NNNI34
I1
I0
tp215
bS'mass-tower_00193_1010101010~10-cb1'
p216
tp217
Rp218
sg17
g93
sg19
I01
sg20
I00
sg21
I00
sa(dp219
g2
g7
(g8
(S'S7'
p220
I0
I1
tp221
Rp222
(I3
S'|'
p223
NNNI7
I1
I0
tp224
bS'#FF7000'
p225
tp226
Rp227
sg3
I6
sg4
g7
(g8
(S'S7'
p228
I0
I1
tp229
Rp230
(I3
S'|'
p231
NNNI7
I1
I0
tp232
bS'#0033FF'
p233
tp234
Rp235
sg5
I13
sg6
g7
(g8
(S'S34'
p236
I0
I1
tp237
Rp238
(I3
S'|'
p239
NNNI34
I1
I0
tp240
bS'mass-tower_00018_0001011101~10-cb1'
p241
tp242
Rp243
sg17
g93
sg19
I00
sg20
I00
sg21
I00
sa(dp244
g2
g7
(g8
(S'S7'
p245
I0
I1
tp246
Rp247
(I3
S'|'
p248
NNNI7
I1
I0
tp249
bS'#FF00FF'
p250
tp251
Rp252
sg3
I7
sg4
g7
(g8
(S'S7'
p253
I0
I1
tp254
Rp255
(I3
S'|'
p256
NNNI7
I1
I0
tp257
bS'#0033FF'
p258
tp259
Rp260
sg5
I14
sg6
g7
(g8
(S'S34'
p261
I0
I1
tp262
Rp263
(I3
S'|'
p264
NNNI34
I1
I0
tp265
bS'mass-tower_00021_1010010110~10-cb1'
p266
tp267
Rp268
sg17
g93
sg19
I00
sg20
I00
sg21
I00
sa(dp269
g2
g7
(g8
(S'S7'
p270
I0
I1
tp271
Rp272
(I3
S'|'
p273
NNNI7
I1
I0
tp274
bS'#0033FF'
p275
tp276
Rp277
sg3
I8
sg4
g7
(g8
(S'S7'
p278
I0
I1
tp279
Rp280
(I3
S'|'
p281
NNNI7
I1
I0
tp282
bS'#FFFF00'
p283
tp284
Rp285
sg5
I15
sg6
g7
(g8
(S'S34'
p286
I0
I1
tp287
Rp288
(I3
S'|'
p289
NNNI34
I1
I0
tp290
bS'mass-tower_00357_1010000111~10-cb1'
p291
tp292
Rp293
sg17
g93
sg19
I00
sg20
I00
sg21
I00
sa(dp294
g2
g7
(g8
(S'S7'
p295
I0
I1
tp296
Rp297
(I3
S'|'
p298
NNNI7
I1
I0
tp299
bS'#FF00FF'
p300
tp301
Rp302
sg3
I9
sg4
g7
(g8
(S'S7'
p303
I0
I1
tp304
Rp305
(I3
S'|'
p306
NNNI7
I1
I0
tp307
bS'#00FF00'
p308
tp309
Rp310
sg5
I16
sg6
g7
(g8
(S'S34'
p311
I0
I1
tp312
Rp313
(I3
S'|'
p314
NNNI34
I1
I0
tp315
bS'mass-tower_00279_1110000011~10-cb1'
p316
tp317
Rp318
sg17
g93
sg19
I01
sg20
I00
sg21
I00
sa(dp319
g2
g7
(g8
(S'S7'
p320
I0
I1
tp321
Rp322
(I3
S'|'
p323
NNNI7
I1
I0
tp324
bS'#FF7000'
p325
tp326
Rp327
sg3
I10
sg4
g7
(g8
(S'S7'
p328
I0
I1
tp329
Rp330
(I3
S'|'
p331
NNNI7
I1
I0
tp332
bS'#0033FF'
p333
tp334
Rp335
sg5
I17
sg6
g7
(g8
(S'S34'
p336
I0
I1
tp337
Rp338
(I3
S'|'
p339
NNNI34
I1
I0
tp340
bS'mass-tower_00009_1100010110~10-cb1'
p341
tp342
Rp343
sg17
g93
sg19
I00
sg20
I00
sg21
I00
sa(dp344
g2
g7
(g8
(S'S7'
p345
I0
I1
tp346
Rp347
(I3
S'|'
p348
NNNI7
I1
I0
tp349
bS'#00FF00'
p350
tp351
Rp352
sg3
I11
sg4
g7
(g8
(S'S7'
p353
I0
I1
tp354
Rp355
(I3
S'|'
p356
NNNI7
I1
I0
tp357
bS'#FF00FF'
p358
tp359
Rp360
sg5
I18
sg6
g7
(g8
(S'S34'
p361
I0
I1
tp362
Rp363
(I3
S'|'
p364
NNNI34
I1
I0
tp365
bS'mass-tower_00074_0010111001~10-cb1'
p366
tp367
Rp368
sg17
g93
sg19
I00
sg20
I00
sg21
I00
sa(dp369
g2
g7
(g8
(S'S7'
p370
I0
I1
tp371
Rp372
(I3
S'|'
p373
NNNI7
I1
I0
tp374
bS'#0033FF'
p375
tp376
Rp377
sg3
I12
sg4
g7
(g8
(S'S7'
p378
I0
I1
tp379
Rp380
(I3
S'|'
p381
NNNI7
I1
I0
tp382
bS'#FF0033'
p383
tp384
Rp385
sg5
I19
sg6
g7
(g8
(S'S34'
p386
I0
I1
tp387
Rp388
(I3
S'|'
p389
NNNI34
I1
I0
tp390
bS'mass-tower_00102_0001011011~10-cb1'
p391
tp392
Rp393
sg17
g93
sg19
I00
sg20
I00
sg21
I00
sa(dp394
g2
g7
(g8
(S'S7'
p395
I0
I1
tp396
Rp397
(I3
S'|'
p398
NNNI7
I1
I0
tp399
bS'#00FF00'
p400
tp401
Rp402
sg3
I13
sg4
g7
(g8
(S'S7'
p403
I0
I1
tp404
Rp405
(I3
S'|'
p406
NNNI7
I1
I0
tp407
bS'#0033FF'
p408
tp409
Rp410
sg5
I20
sg6
g7
(g8
(S'S34'
p411
I0
I1
tp412
Rp413
(I3
S'|'
p414
NNNI34
I1
I0
tp415
bS'mass-tower_00117_0110111000~10-cb1'
p416
tp417
Rp418
sg17
g93
sg19
I00
sg20
I00
sg21
I00
sa(dp419
g2
g7
(g8
(S'S7'
p420
I0
I1
tp421
Rp422
(I3
S'|'
p423
NNNI7
I1
I0
tp424
bS'#0033FF'
p425
tp426
Rp427
sg3
I14
sg4
g7
(g8
(S'S7'
p428
I0
I1
tp429
Rp430
(I3
S'|'
p431
NNNI7
I1
I0
tp432
bS'#FFFF00'
p433
tp434
Rp435
sg5
I21
sg6
g7
(g8
(S'S34'
p436
I0
I1
tp437
Rp438
(I3
S'|'
p439
NNNI34
I1
I0
tp440
bS'mass-tower_01264_0011111000~10-cb1'
p441
tp442
Rp443
sg17
g93
sg19
I01
sg20
I00
sg21
I00
sa(dp444
g2
g7
(g8
(S'S7'
p445
I0
I1
tp446
Rp447
(I3
S'|'
p448
NNNI7
I1
I0
tp449
bS'#00FF00'
p450
tp451
Rp452
sg3
I15
sg4
g7
(g8
(S'S7'
p453
I0
I1
tp454
Rp455
(I3
S'|'
p456
NNNI7
I1
I0
tp457
bS'#0033FF'
p458
tp459
Rp460
sg5
I22
sg6
g7
(g8
(S'S34'
p461
I0
I1
tp462
Rp463
(I3
S'|'
p464
NNNI34
I1
I0
tp465
bS'mass-tower_00483_1010010011~10-cb1'
p466
tp467
Rp468
sg17
g93
sg19
I01
sg20
I00
sg21
I00
sa(dp469
g2
g7
(g8
(S'S7'
p470
I0
I1
tp471
Rp472
(I3
S'|'
p473
NNNI7
I1
I0
tp474
bS'#0033FF'
p475
tp476
Rp477
sg3
I16
sg4
g7
(g8
(S'S7'
p478
I0
I1
tp479
Rp480
(I3
S'|'
p481
NNNI7
I1
I0
tp482
bS'#00FF00'
p483
tp484
Rp485
sg5
I23
sg6
g7
(g8
(S'S34'
p486
I0
I1
tp487
Rp488
(I3
S'|'
p489
NNNI34
I1
I0
tp490
bS'mass-tower_00222_1001101001~10-cb1'
p491
tp492
Rp493
sg17
g93
sg19
I01
sg20
I00
sg21
I00
sa(dp494
g2
g7
(g8
(S'S7'
p495
I0
I1
tp496
Rp497
(I3
S'|'
p498
NNNI7
I1
I0
tp499
bS'#FF0033'
p500
tp501
Rp502
sg3
I17
sg4
g7
(g8
(S'S7'
p503
I0
I1
tp504
Rp505
(I3
S'|'
p506
NNNI7
I1
I0
tp507
bS'#FFFF00'
p508
tp509
Rp510
sg5
I24
sg6
g7
(g8
(S'S34'
p511
I0
I1
tp512
Rp513
(I3
S'|'
p514
NNNI34
I1
I0
tp515
bS'mass-tower_01441_1100100101~10-cb1'
p516
tp517
Rp518
sg17
g93
sg19
I00
sg20
I00
sg21
I00
sa(dp519
g2
g7
(g8
(S'S7'
p520
I0
I1
tp521
Rp522
(I3
S'|'
p523
NNNI7
I1
I0
tp524
bS'#FF0033'
p525
tp526
Rp527
sg3
I18
sg4
g7
(g8
(S'S7'
p528
I0
I1
tp529
Rp530
(I3
S'|'
p531
NNNI7
I1
I0
tp532
bS'#0033FF'
p533
tp534
Rp535
sg5
I25
sg6
g7
(g8
(S'S34'
p536
I0
I1
tp537
Rp538
(I3
S'|'
p539
NNNI34
I1
I0
tp540
bS'mass-tower_00160_0011011100~10-cb1'
p541
tp542
Rp543
sg17
g93
sg19
I01
sg20
I00
sg21
I00
sa(dp544
g2
g7
(g8
(S'S7'
p545
I0
I1
tp546
Rp547
(I3
S'|'
p548
NNNI7
I1
I0
tp549
bS'#FF7000'
p550
tp551
Rp552
sg3
I19
sg4
g7
(g8
(S'S7'
p553
I0
I1
tp554
Rp555
(I3
S'|'
p556
NNNI7
I1
I0
tp557
bS'#0033FF'
p558
tp559
Rp560
sg5
I26
sg6
g7
(g8
(S'S34'
p561
I0
I1
tp562
Rp563
(I3
S'|'
p564
NNNI34
I1
I0
tp565
bS'mass-tower_00316_0101010101~10-cb1'
p566
tp567
Rp568
sg17
g93
sg19
I01
sg20
I00
sg21
I00
saS'finished experiment'
p569
a(dp570
g2
Nsg3
I0
sg4
Nsg5
I28
sg6
g7
(g8
(S'S14'
p571
I0
I1
tp572
Rp573
(I3
S'|'
p574
NNNI14
I1
I0
tp575
bS'stability01491'
p576
tp577
Rp578
sg17
S'posttest'
p579
sg19
I00
sg20
I01
sg21
I01
sa(dp580
g2
Nsg3
I1
sg4
Nsg5
I29
sg6
g7
(g8
(S'S14'
p581
I0
I1
tp582
Rp583
(I3
S'|'
p584
NNNI14
I1
I0
tp585
bS'stability01893'
p586
tp587
Rp588
sg17
g579
sg19
I01
sg20
I01
sg21
I01
sa(dp589
g2
Nsg3
I2
sg4
Nsg5
I30
sg6
g7
(g8
(S'S14'
p590
I0
I1
tp591
Rp592
(I3
S'|'
p593
NNNI14
I1
I0
tp594
bS'stability01178'
p595
tp596
Rp597
sg17
g579
sg19
I01
sg20
I01
sg21
I01
sa(dp598
g2
Nsg3
I3
sg4
Nsg5
I31
sg6
g7
(g8
(S'S14'
p599
I0
I1
tp600
Rp601
(I3
S'|'
p602
NNNI14
I1
I0
tp603
bS'stability01654'
p604
tp605
Rp606
sg17
g579
sg19
I00
sg20
I01
sg21
I01
sa(dp607
g2
Nsg3
I4
sg4
Nsg5
I32
sg6
g7
(g8
(S'S14'
p608
I0
I1
tp609
Rp610
(I3
S'|'
p611
NNNI14
I1
I0
tp612
bS'stability01967'
p613
tp614
Rp615
sg17
g579
sg19
I00
sg20
I01
sg21
I01
sa(dp616
g2
Nsg3
I5
sg4
Nsg5
I33
sg6
g7
(g8
(S'S14'
p617
I0
I1
tp618
Rp619
(I3
S'|'
p620
NNNI14
I1
I0
tp621
bS'stability01023'
p622
tp623
Rp624
sg17
g579
sg19
I01
sg20
I01
sg21
I01
saS'finished posttest'
p625
a.