(lp0
(dp1
S'color1_name'
p2
NsS'video_fb'
p3
I01
sS'text_fb'
p4
I01
sS'color1'
p5
NsS'color0'
p6
NsS'index'
p7
I0
sS'color0_name'
p8
NsS'stimulus'
p9
cnumpy.core.multiarray
scalar
p10
(cnumpy
dtype
p11
(S'S14'
p12
I0
I1
tp13
Rp14
(I3
S'|'
p15
NNNI14
I1
I0
tp16
bS'stability01654'
p17
tp18
Rp19
sS'trial'
p20
I0
sS'stable'
p21
I00
sS'ttype'
p22
S'training'
p23
sS'flip_colors'
p24
g10
(g11
(S'b1'
p25
I0
I1
tp26
Rp27
(I3
S'|'
p28
NNNI-1
I-1
I0
tp29
bS'\x01'
p30
tp31
Rp32
sa(dp33
g2
Nsg3
I01
sg4
I01
sg5
Nsg6
Nsg7
I1
sg8
Nsg9
g10
(g11
(S'S14'
p34
I0
I1
tp35
Rp36
(I3
S'|'
p37
NNNI14
I1
I0
tp38
bS'stability01967'
p39
tp40
Rp41
sg20
I1
sg21
I00
sg22
g23
sg24
g32
sa(dp42
g2
Nsg3
I01
sg4
I01
sg5
Nsg6
Nsg7
I2
sg8
Nsg9
g10
(g11
(S'S14'
p43
I0
I1
tp44
Rp45
(I3
S'|'
p46
NNNI14
I1
I0
tp47
bS'stability01023'
p48
tp49
Rp50
sg20
I2
sg21
I01
sg22
g23
sg24
g32
sa(dp51
g2
Nsg3
I01
sg4
I01
sg5
Nsg6
Nsg7
I3
sg8
Nsg9
g10
(g11
(S'S14'
p52
I0
I1
tp53
Rp54
(I3
S'|'
p55
NNNI14
I1
I0
tp56
bS'stability01491'
p57
tp58
Rp59
sg20
I3
sg21
I00
sg22
g23
sg24
g10
(g27
S'\x00'
p60
tp61
Rp62
sa(dp63
g2
Nsg3
I01
sg4
I01
sg5
Nsg6
Nsg7
I4
sg8
Nsg9
g10
(g11
(S'S14'
p64
I0
I1
tp65
Rp66
(I3
S'|'
p67
NNNI14
I1
I0
tp68
bS'stability01178'
p69
tp70
Rp71
sg20
I4
sg21
I01
sg22
g23
sg24
g62
sa(dp72
g2
Nsg3
I01
sg4
I01
sg5
Nsg6
Nsg7
I5
sg8
Nsg9
g10
(g11
(S'S14'
p73
I0
I1
tp74
Rp75
(I3
S'|'
p76
NNNI14
I1
I0
tp77
bS'stability01893'
p78
tp79
Rp80
sg20
I5
sg21
I01
sg22
g23
sg24
g62
saS'finished training'
p81
a(dp82
g2
g10
(g11
(S'S4'
p83
I0
I1
tp84
Rp85
(I3
S'|'
p86
NNNI4
I1
I0
tp87
bS'gray'
p88
tp89
Rp90
sg3
I00
sg4
I00
sg5
g10
(g11
(S'S7'
p91
I0
I1
tp92
Rp93
(I3
S'|'
p94
NNNI7
I1
I0
tp95
bS'#808080'
p96
tp97
Rp98
sg6
g10
(g11
(S'S7'
p99
I0
I1
tp100
Rp101
(I3
S'|'
p102
NNNI7
I1
I0
tp103
bS'#00FFFF'
p104
tp105
Rp106
sg7
I7
sg8
g10
(g11
(S'S4'
p107
I0
I1
tp108
Rp109
(I3
S'|'
p110
NNNI4
I1
I0
tp111
bS'cyan'
p112
tp113
Rp114
sg9
g10
(g11
(S'S34'
p115
I0
I1
tp116
Rp117
(I3
S'|'
p118
NNNI34
I1
I0
tp119
bS'mass-tower_00015_1010101010~10-cb1'
p120
tp121
Rp122
sg20
I0
sg21
I00
sg22
S'experiment'
p123
sg24
g32
sa(dp124
g2
g10
(g11
(S'S5'
p125
I0
I1
tp126
Rp127
(I3
S'|'
p128
NNNI5
I1
I0
tp129
bS'green'
p130
tp131
Rp132
sg3
I00
sg4
I00
sg5
g10
(g11
(S'S7'
p133
I0
I1
tp134
Rp135
(I3
S'|'
p136
NNNI7
I1
I0
tp137
bS'#00FF00'
p138
tp139
Rp140
sg6
g10
(g11
(S'S7'
p141
I0
I1
tp142
Rp143
(I3
S'|'
p144
NNNI7
I1
I0
tp145
bS'#FF00FF'
p146
tp147
Rp148
sg7
I8
sg8
g10
(g11
(S'S7'
p149
I0
I1
tp150
Rp151
(I3
S'|'
p152
NNNI7
I1
I0
tp153
bS'magenta'
p154
tp155
Rp156
sg9
g10
(g11
(S'S34'
p157
I0
I1
tp158
Rp159
(I3
S'|'
p160
NNNI34
I1
I0
tp161
bS'mass-tower_01441_1100100101~10-cb1'
p162
tp163
Rp164
sg20
I1
sg21
I00
sg22
g123
sg24
g62
sa(dp165
g2
g10
(g11
(S'S3'
p166
I0
I1
tp167
Rp168
(I3
S'|'
p169
NNNI3
I1
I0
tp170
bS'red'
p171
tp172
Rp173
sg3
I00
sg4
I00
sg5
g10
(g11
(S'S7'
p174
I0
I1
tp175
Rp176
(I3
S'|'
p177
NNNI7
I1
I0
tp178
bS'#FF3333'
p179
tp180
Rp181
sg6
g10
(g11
(S'S7'
p182
I0
I1
tp183
Rp184
(I3
S'|'
p185
NNNI7
I1
I0
tp186
bS'#3366FF'
p187
tp188
Rp189
sg7
I9
sg8
g10
(g11
(S'S4'
p190
I0
I1
tp191
Rp192
(I3
S'|'
p193
NNNI4
I1
I0
tp194
bS'blue'
p195
tp196
Rp197
sg9
g10
(g11
(S'S34'
p198
I0
I1
tp199
Rp200
(I3
S'|'
p201
NNNI34
I1
I0
tp202
bS'mass-tower_00074_0010111001~10-cb1'
p203
tp204
Rp205
sg20
I2
sg21
I00
sg22
g123
sg24
g62
sa(dp206
g2
g10
(g11
(S'S4'
p207
I0
I1
tp208
Rp209
(I3
S'|'
p210
NNNI4
I1
I0
tp211
bS'cyan'
p212
tp213
Rp214
sg3
I00
sg4
I00
sg5
g10
(g11
(S'S7'
p215
I0
I1
tp216
Rp217
(I3
S'|'
p218
NNNI7
I1
I0
tp219
bS'#00FFFF'
p220
tp221
Rp222
sg6
g10
(g11
(S'S7'
p223
I0
I1
tp224
Rp225
(I3
S'|'
p226
NNNI7
I1
I0
tp227
bS'#FFFF00'
p228
tp229
Rp230
sg7
I10
sg8
g10
(g11
(S'S6'
p231
I0
I1
tp232
Rp233
(I3
S'|'
p234
NNNI6
I1
I0
tp235
bS'yellow'
p236
tp237
Rp238
sg9
g10
(g11
(S'S34'
p239
I0
I1
tp240
Rp241
(I3
S'|'
p242
NNNI34
I1
I0
tp243
bS'mass-tower_00193_1010101010~10-cb1'
p244
tp245
Rp246
sg20
I3
sg21
I01
sg22
g123
sg24
g32
sa(dp247
g2
g10
(g11
(S'S4'
p248
I0
I1
tp249
Rp250
(I3
S'|'
p251
NNNI4
I1
I0
tp252
bS'blue'
p253
tp254
Rp255
sg3
I00
sg4
I00
sg5
g10
(g11
(S'S7'
p256
I0
I1
tp257
Rp258
(I3
S'|'
p259
NNNI7
I1
I0
tp260
bS'#3366FF'
p261
tp262
Rp263
sg6
g10
(g11
(S'S7'
p264
I0
I1
tp265
Rp266
(I3
S'|'
p267
NNNI7
I1
I0
tp268
bS'#00FF00'
p269
tp270
Rp271
sg7
I11
sg8
g10
(g11
(S'S5'
p272
I0
I1
tp273
Rp274
(I3
S'|'
p275
NNNI5
I1
I0
tp276
bS'green'
p277
tp278
Rp279
sg9
g10
(g11
(S'S34'
p280
I0
I1
tp281
Rp282
(I3
S'|'
p283
NNNI34
I1
I0
tp284
bS'mass-tower_00260_0110110100~10-cb1'
p285
tp286
Rp287
sg20
I4
sg21
I01
sg22
g123
sg24
g62
sa(dp288
g2
g10
(g11
(S'S6'
p289
I0
I1
tp290
Rp291
(I3
S'|'
p292
NNNI6
I1
I0
tp293
bS'orange'
p294
tp295
Rp296
sg3
I00
sg4
I00
sg5
g10
(g11
(S'S7'
p297
I0
I1
tp298
Rp299
(I3
S'|'
p300
NNNI7
I1
I0
tp301
bS'#FF7000'
p302
tp303
Rp304
sg6
g10
(g11
(S'S7'
p305
I0
I1
tp306
Rp307
(I3
S'|'
p308
NNNI7
I1
I0
tp309
bS'#00FFFF'
p310
tp311
Rp312
sg7
I12
sg8
g10
(g11
(S'S4'
p313
I0
I1
tp314
Rp315
(I3
S'|'
p316
NNNI4
I1
I0
tp317
bS'cyan'
p318
tp319
Rp320
sg9
g10
(g11
(S'S34'
p321
I0
I1
tp322
Rp323
(I3
S'|'
p324
NNNI34
I1
I0
tp325
bS'mass-tower_00102_0001011011~10-cb1'
p326
tp327
Rp328
sg20
I5
sg21
I00
sg22
g123
sg24
g32
sa(dp329
g2
g10
(g11
(S'S7'
p330
I0
I1
tp331
Rp332
(I3
S'|'
p333
NNNI7
I1
I0
tp334
bS'magenta'
p335
tp336
Rp337
sg3
I00
sg4
I00
sg5
g10
(g11
(S'S7'
p338
I0
I1
tp339
Rp340
(I3
S'|'
p341
NNNI7
I1
I0
tp342
bS'#FF00FF'
p343
tp344
Rp345
sg6
g10
(g11
(S'S7'
p346
I0
I1
tp347
Rp348
(I3
S'|'
p349
NNNI7
I1
I0
tp350
bS'#FFFF00'
p351
tp352
Rp353
sg7
I13
sg8
g10
(g11
(S'S6'
p354
I0
I1
tp355
Rp356
(I3
S'|'
p357
NNNI6
I1
I0
tp358
bS'yellow'
p359
tp360
Rp361
sg9
g10
(g11
(S'S34'
p362
I0
I1
tp363
Rp364
(I3
S'|'
p365
NNNI34
I1
I0
tp366
bS'mass-tower_00160_0011011100~10-cb1'
p367
tp368
Rp369
sg20
I6
sg21
I01
sg22
g123
sg24
g32
sa(dp370
g2
g10
(g11
(S'S5'
p371
I0
I1
tp372
Rp373
(I3
S'|'
p374
NNNI5
I1
I0
tp375
bS'green'
p376
tp377
Rp378
sg3
I00
sg4
I00
sg5
g10
(g11
(S'S7'
p379
I0
I1
tp380
Rp381
(I3
S'|'
p382
NNNI7
I1
I0
tp383
bS'#00FF00'
p384
tp385
Rp386
sg6
g10
(g11
(S'S7'
p387
I0
I1
tp388
Rp389
(I3
S'|'
p390
NNNI7
I1
I0
tp391
bS'#FF7000'
p392
tp393
Rp394
sg7
I14
sg8
g10
(g11
(S'S6'
p395
I0
I1
tp396
Rp397
(I3
S'|'
p398
NNNI6
I1
I0
tp399
bS'orange'
p400
tp401
Rp402
sg9
g10
(g11
(S'S34'
p403
I0
I1
tp404
Rp405
(I3
S'|'
p406
NNNI34
I1
I0
tp407
bS'mass-tower_00080_0110010110~10-cb1'
p408
tp409
Rp410
sg20
I7
sg21
I01
sg22
g123
sg24
g32
sa(dp411
g2
g10
(g11
(S'S3'
p412
I0
I1
tp413
Rp414
(I3
S'|'
p415
NNNI3
I1
I0
tp416
bS'red'
p417
tp418
Rp419
sg3
I00
sg4
I00
sg5
g10
(g11
(S'S7'
p420
I0
I1
tp421
Rp422
(I3
S'|'
p423
NNNI7
I1
I0
tp424
bS'#FF3333'
p425
tp426
Rp427
sg6
g10
(g11
(S'S7'
p428
I0
I1
tp429
Rp430
(I3
S'|'
p431
NNNI7
I1
I0
tp432
bS'#808080'
p433
tp434
Rp435
sg7
I15
sg8
g10
(g11
(S'S4'
p436
I0
I1
tp437
Rp438
(I3
S'|'
p439
NNNI4
I1
I0
tp440
bS'gray'
p441
tp442
Rp443
sg9
g10
(g11
(S'S34'
p444
I0
I1
tp445
Rp446
(I3
S'|'
p447
NNNI34
I1
I0
tp448
bS'mass-tower_00009_1100010110~10-cb1'
p449
tp450
Rp451
sg20
I8
sg21
I00
sg22
g123
sg24
g32
sa(dp452
g2
g10
(g11
(S'S4'
p453
I0
I1
tp454
Rp455
(I3
S'|'
p456
NNNI4
I1
I0
tp457
bS'blue'
p458
tp459
Rp460
sg3
I00
sg4
I00
sg5
g10
(g11
(S'S7'
p461
I0
I1
tp462
Rp463
(I3
S'|'
p464
NNNI7
I1
I0
tp465
bS'#3366FF'
p466
tp467
Rp468
sg6
g10
(g11
(S'S7'
p469
I0
I1
tp470
Rp471
(I3
S'|'
p472
NNNI7
I1
I0
tp473
bS'#FFFF00'
p474
tp475
Rp476
sg7
I16
sg8
g10
(g11
(S'S6'
p477
I0
I1
tp478
Rp479
(I3
S'|'
p480
NNNI6
I1
I0
tp481
bS'yellow'
p482
tp483
Rp484
sg9
g10
(g11
(S'S34'
p485
I0
I1
tp486
Rp487
(I3
S'|'
p488
NNNI34
I1
I0
tp489
bS'mass-tower_00524_1101001010~10-cb1'
p490
tp491
Rp492
sg20
I9
sg21
I01
sg22
g123
sg24
g62
sa(dp493
g2
g10
(g11
(S'S4'
p494
I0
I1
tp495
Rp496
(I3
S'|'
p497
NNNI4
I1
I0
tp498
bS'gray'
p499
tp500
Rp501
sg3
I00
sg4
I00
sg5
g10
(g11
(S'S7'
p502
I0
I1
tp503
Rp504
(I3
S'|'
p505
NNNI7
I1
I0
tp506
bS'#808080'
p507
tp508
Rp509
sg6
g10
(g11
(S'S7'
p510
I0
I1
tp511
Rp512
(I3
S'|'
p513
NNNI7
I1
I0
tp514
bS'#FF00FF'
p515
tp516
Rp517
sg7
I17
sg8
g10
(g11
(S'S7'
p518
I0
I1
tp519
Rp520
(I3
S'|'
p521
NNNI7
I1
I0
tp522
bS'magenta'
p523
tp524
Rp525
sg9
g10
(g11
(S'S34'
p526
I0
I1
tp527
Rp528
(I3
S'|'
p529
NNNI34
I1
I0
tp530
bS'mass-tower_00271_1011000101~10-cb1'
p531
tp532
Rp533
sg20
I10
sg21
I00
sg22
g123
sg24
g32
sa(dp534
g2
g10
(g11
(S'S3'
p535
I0
I1
tp536
Rp537
(I3
S'|'
p538
NNNI3
I1
I0
tp539
bS'red'
p540
tp541
Rp542
sg3
I00
sg4
I00
sg5
g10
(g11
(S'S7'
p543
I0
I1
tp544
Rp545
(I3
S'|'
p546
NNNI7
I1
I0
tp547
bS'#FF3333'
p548
tp549
Rp550
sg6
g10
(g11
(S'S7'
p551
I0
I1
tp552
Rp553
(I3
S'|'
p554
NNNI7
I1
I0
tp555
bS'#FFFF00'
p556
tp557
Rp558
sg7
I18
sg8
g10
(g11
(S'S6'
p559
I0
I1
tp560
Rp561
(I3
S'|'
p562
NNNI6
I1
I0
tp563
bS'yellow'
p564
tp565
Rp566
sg9
g10
(g11
(S'S34'
p567
I0
I1
tp568
Rp569
(I3
S'|'
p570
NNNI34
I1
I0
tp571
bS'mass-tower_00021_1010010110~10-cb1'
p572
tp573
Rp574
sg20
I11
sg21
I00
sg22
g123
sg24
g62
sa(dp575
g2
g10
(g11
(S'S7'
p576
I0
I1
tp577
Rp578
(I3
S'|'
p579
NNNI7
I1
I0
tp580
bS'magenta'
p581
tp582
Rp583
sg3
I00
sg4
I00
sg5
g10
(g11
(S'S7'
p584
I0
I1
tp585
Rp586
(I3
S'|'
p587
NNNI7
I1
I0
tp588
bS'#FF00FF'
p589
tp590
Rp591
sg6
g10
(g11
(S'S7'
p592
I0
I1
tp593
Rp594
(I3
S'|'
p595
NNNI7
I1
I0
tp596
bS'#00FF00'
p597
tp598
Rp599
sg7
I19
sg8
g10
(g11
(S'S5'
p600
I0
I1
tp601
Rp602
(I3
S'|'
p603
NNNI5
I1
I0
tp604
bS'green'
p605
tp606
Rp607
sg9
g10
(g11
(S'S34'
p608
I0
I1
tp609
Rp610
(I3
S'|'
p611
NNNI34
I1
I0
tp612
bS'mass-tower_01264_0011111000~10-cb1'
p613
tp614
Rp615
sg20
I12
sg21
I01
sg22
g123
sg24
g32
sa(dp616
g2
g10
(g11
(S'S6'
p617
I0
I1
tp618
Rp619
(I3
S'|'
p620
NNNI6
I1
I0
tp621
bS'yellow'
p622
tp623
Rp624
sg3
I00
sg4
I00
sg5
g10
(g11
(S'S7'
p625
I0
I1
tp626
Rp627
(I3
S'|'
p628
NNNI7
I1
I0
tp629
bS'#FFFF00'
p630
tp631
Rp632
sg6
g10
(g11
(S'S7'
p633
I0
I1
tp634
Rp635
(I3
S'|'
p636
NNNI7
I1
I0
tp637
bS'#00FFFF'
p638
tp639
Rp640
sg7
I20
sg8
g10
(g11
(S'S4'
p641
I0
I1
tp642
Rp643
(I3
S'|'
p644
NNNI4
I1
I0
tp645
bS'cyan'
p646
tp647
Rp648
sg9
g10
(g11
(S'S34'
p649
I0
I1
tp650
Rp651
(I3
S'|'
p652
NNNI34
I1
I0
tp653
bS'mass-tower_00279_1110000011~10-cb1'
p654
tp655
Rp656
sg20
I13
sg21
I01
sg22
g123
sg24
g62
sa(dp657
g2
g10
(g11
(S'S4'
p658
I0
I1
tp659
Rp660
(I3
S'|'
p661
NNNI4
I1
I0
tp662
bS'gray'
p663
tp664
Rp665
sg3
I00
sg4
I00
sg5
g10
(g11
(S'S7'
p666
I0
I1
tp667
Rp668
(I3
S'|'
p669
NNNI7
I1
I0
tp670
bS'#808080'
p671
tp672
Rp673
sg6
g10
(g11
(S'S7'
p674
I0
I1
tp675
Rp676
(I3
S'|'
p677
NNNI7
I1
I0
tp678
bS'#FF3333'
p679
tp680
Rp681
sg7
I21
sg8
g10
(g11
(S'S3'
p682
I0
I1
tp683
Rp684
(I3
S'|'
p685
NNNI3
I1
I0
tp686
bS'red'
p687
tp688
Rp689
sg9
g10
(g11
(S'S34'
p690
I0
I1
tp691
Rp692
(I3
S'|'
p693
NNNI34
I1
I0
tp694
bS'mass-tower_00117_0110111000~10-cb1'
p695
tp696
Rp697
sg20
I14
sg21
I00
sg22
g123
sg24
g32
sa(dp698
g2
g10
(g11
(S'S4'
p699
I0
I1
tp700
Rp701
(I3
S'|'
p702
NNNI4
I1
I0
tp703
bS'blue'
p704
tp705
Rp706
sg3
I00
sg4
I00
sg5
g10
(g11
(S'S7'
p707
I0
I1
tp708
Rp709
(I3
S'|'
p710
NNNI7
I1
I0
tp711
bS'#3366FF'
p712
tp713
Rp714
sg6
g10
(g11
(S'S7'
p715
I0
I1
tp716
Rp717
(I3
S'|'
p718
NNNI7
I1
I0
tp719
bS'#FFFF00'
p720
tp721
Rp722
sg7
I22
sg8
g10
(g11
(S'S6'
p723
I0
I1
tp724
Rp725
(I3
S'|'
p726
NNNI6
I1
I0
tp727
bS'yellow'
p728
tp729
Rp730
sg9
g10
(g11
(S'S34'
p731
I0
I1
tp732
Rp733
(I3
S'|'
p734
NNNI34
I1
I0
tp735
bS'mass-tower_00357_1010000111~10-cb1'
p736
tp737
Rp738
sg20
I15
sg21
I00
sg22
g123
sg24
g62
sa(dp739
g2
g10
(g11
(S'S7'
p740
I0
I1
tp741
Rp742
(I3
S'|'
p743
NNNI7
I1
I0
tp744
bS'magenta'
p745
tp746
Rp747
sg3
I00
sg4
I00
sg5
g10
(g11
(S'S7'
p748
I0
I1
tp749
Rp750
(I3
S'|'
p751
NNNI7
I1
I0
tp752
bS'#FF00FF'
p753
tp754
Rp755
sg6
g10
(g11
(S'S7'
p756
I0
I1
tp757
Rp758
(I3
S'|'
p759
NNNI7
I1
I0
tp760
bS'#808080'
p761
tp762
Rp763
sg7
I23
sg8
g10
(g11
(S'S4'
p764
I0
I1
tp765
Rp766
(I3
S'|'
p767
NNNI4
I1
I0
tp768
bS'gray'
p769
tp770
Rp771
sg9
g10
(g11
(S'S34'
p772
I0
I1
tp773
Rp774
(I3
S'|'
p775
NNNI34
I1
I0
tp776
bS'mass-tower_00483_1010010011~10-cb1'
p777
tp778
Rp779
sg20
I16
sg21
I01
sg22
g123
sg24
g32
sa(dp780
g2
g10
(g11
(S'S6'
p781
I0
I1
tp782
Rp783
(I3
S'|'
p784
NNNI6
I1
I0
tp785
bS'orange'
p786
tp787
Rp788
sg3
I00
sg4
I00
sg5
g10
(g11
(S'S7'
p789
I0
I1
tp790
Rp791
(I3
S'|'
p792
NNNI7
I1
I0
tp793
bS'#FF7000'
p794
tp795
Rp796
sg6
g10
(g11
(S'S7'
p797
I0
I1
tp798
Rp799
(I3
S'|'
p800
NNNI7
I1
I0
tp801
bS'#3366FF'
p802
tp803
Rp804
sg7
I24
sg8
g10
(g11
(S'S4'
p805
I0
I1
tp806
Rp807
(I3
S'|'
p808
NNNI4
I1
I0
tp809
bS'blue'
p810
tp811
Rp812
sg9
g10
(g11
(S'S34'
p813
I0
I1
tp814
Rp815
(I3
S'|'
p816
NNNI34
I1
I0
tp817
bS'mass-tower_00222_1001101001~10-cb1'
p818
tp819
Rp820
sg20
I17
sg21
I01
sg22
g123
sg24
g62
sa(dp821
g2
g10
(g11
(S'S5'
p822
I0
I1
tp823
Rp824
(I3
S'|'
p825
NNNI5
I1
I0
tp826
bS'green'
p827
tp828
Rp829
sg3
I00
sg4
I00
sg5
g10
(g11
(S'S7'
p830
I0
I1
tp831
Rp832
(I3
S'|'
p833
NNNI7
I1
I0
tp834
bS'#00FF00'
p835
tp836
Rp837
sg6
g10
(g11
(S'S7'
p838
I0
I1
tp839
Rp840
(I3
S'|'
p841
NNNI7
I1
I0
tp842
bS'#808080'
p843
tp844
Rp845
sg7
I25
sg8
g10
(g11
(S'S4'
p846
I0
I1
tp847
Rp848
(I3
S'|'
p849
NNNI4
I1
I0
tp850
bS'gray'
p851
tp852
Rp853
sg9
g10
(g11
(S'S34'
p854
I0
I1
tp855
Rp856
(I3
S'|'
p857
NNNI34
I1
I0
tp858
bS'mass-tower_00018_0001011101~10-cb1'
p859
tp860
Rp861
sg20
I18
sg21
I00
sg22
g123
sg24
g62
sa(dp862
g2
g10
(g11
(S'S7'
p863
I0
I1
tp864
Rp865
(I3
S'|'
p866
NNNI7
I1
I0
tp867
bS'magenta'
p868
tp869
Rp870
sg3
I00
sg4
I00
sg5
g10
(g11
(S'S7'
p871
I0
I1
tp872
Rp873
(I3
S'|'
p874
NNNI7
I1
I0
tp875
bS'#FF00FF'
p876
tp877
Rp878
sg6
g10
(g11
(S'S7'
p879
I0
I1
tp880
Rp881
(I3
S'|'
p882
NNNI7
I1
I0
tp883
bS'#00FFFF'
p884
tp885
Rp886
sg7
I26
sg8
g10
(g11
(S'S4'
p887
I0
I1
tp888
Rp889
(I3
S'|'
p890
NNNI4
I1
I0
tp891
bS'cyan'
p892
tp893
Rp894
sg9
g10
(g11
(S'S34'
p895
I0
I1
tp896
Rp897
(I3
S'|'
p898
NNNI34
I1
I0
tp899
bS'mass-tower_00316_0101010101~10-cb1'
p900
tp901
Rp902
sg20
I19
sg21
I01
sg22
g123
sg24
g62
saS'finished experiment'
p903
a(dp904
g2
Nsg3
I01
sg4
I01
sg5
Nsg6
Nsg7
I28
sg8
Nsg9
g10
(g11
(S'S14'
p905
I0
I1
tp906
Rp907
(I3
S'|'
p908
NNNI14
I1
I0
tp909
bS'stability01491'
p910
tp911
Rp912
sg20
I0
sg21
I00
sg22
S'posttest'
p913
sg24
g62
sa(dp914
g2
Nsg3
I01
sg4
I01
sg5
Nsg6
Nsg7
I29
sg8
Nsg9
g10
(g11
(S'S14'
p915
I0
I1
tp916
Rp917
(I3
S'|'
p918
NNNI14
I1
I0
tp919
bS'stability01893'
p920
tp921
Rp922
sg20
I1
sg21
I01
sg22
g913
sg24
g32
sa(dp923
g2
Nsg3
I01
sg4
I01
sg5
Nsg6
Nsg7
I30
sg8
Nsg9
g10
(g11
(S'S14'
p924
I0
I1
tp925
Rp926
(I3
S'|'
p927
NNNI14
I1
I0
tp928
bS'stability01023'
p929
tp930
Rp931
sg20
I2
sg21
I01
sg22
g913
sg24
g32
sa(dp932
g2
Nsg3
I01
sg4
I01
sg5
Nsg6
Nsg7
I31
sg8
Nsg9
g10
(g11
(S'S14'
p933
I0
I1
tp934
Rp935
(I3
S'|'
p936
NNNI14
I1
I0
tp937
bS'stability01178'
p938
tp939
Rp940
sg20
I3
sg21
I01
sg22
g913
sg24
g32
sa(dp941
g2
Nsg3
I01
sg4
I01
sg5
Nsg6
Nsg7
I32
sg8
Nsg9
g10
(g11
(S'S14'
p942
I0
I1
tp943
Rp944
(I3
S'|'
p945
NNNI14
I1
I0
tp946
bS'stability01654'
p947
tp948
Rp949
sg20
I4
sg21
I00
sg22
g913
sg24
g62
sa(dp950
g2
Nsg3
I01
sg4
I01
sg5
Nsg6
Nsg7
I33
sg8
Nsg9
g10
(g11
(S'S14'
p951
I0
I1
tp952
Rp953
(I3
S'|'
p954
NNNI14
I1
I0
tp955
bS'stability01967'
p956
tp957
Rp958
sg20
I5
sg21
I00
sg22
g913
sg24
g62
saS'finished posttest'
p959
a.