(lp0
(dp1
S'color1_name'
p2
NsS'video_fb'
p3
I01
sS'text_fb'
p4
I01
sS'color1'
p5
NsS'color0'
p6
NsS'index'
p7
I0
sS'color0_name'
p8
NsS'stimulus'
p9
cnumpy.core.multiarray
scalar
p10
(cnumpy
dtype
p11
(S'S14'
p12
I0
I1
tp13
Rp14
(I3
S'|'
p15
NNNI14
I1
I0
tp16
bS'stability01654'
p17
tp18
Rp19
sS'trial'
p20
I0
sS'stable'
p21
I00
sS'ttype'
p22
S'training'
p23
sS'flip_colors'
p24
g10
(g11
(S'b1'
p25
I0
I1
tp26
Rp27
(I3
S'|'
p28
NNNI-1
I-1
I0
tp29
bS'\x01'
p30
tp31
Rp32
sa(dp33
g2
Nsg3
I01
sg4
I01
sg5
Nsg6
Nsg7
I1
sg8
Nsg9
g10
(g11
(S'S14'
p34
I0
I1
tp35
Rp36
(I3
S'|'
p37
NNNI14
I1
I0
tp38
bS'stability01967'
p39
tp40
Rp41
sg20
I1
sg21
I00
sg22
g23
sg24
g32
sa(dp42
g2
Nsg3
I01
sg4
I01
sg5
Nsg6
Nsg7
I2
sg8
Nsg9
g10
(g11
(S'S14'
p43
I0
I1
tp44
Rp45
(I3
S'|'
p46
NNNI14
I1
I0
tp47
bS'stability01023'
p48
tp49
Rp50
sg20
I2
sg21
I01
sg22
g23
sg24
g32
sa(dp51
g2
Nsg3
I01
sg4
I01
sg5
Nsg6
Nsg7
I3
sg8
Nsg9
g10
(g11
(S'S14'
p52
I0
I1
tp53
Rp54
(I3
S'|'
p55
NNNI14
I1
I0
tp56
bS'stability01491'
p57
tp58
Rp59
sg20
I3
sg21
I00
sg22
g23
sg24
g10
(g27
S'\x00'
p60
tp61
Rp62
sa(dp63
g2
Nsg3
I01
sg4
I01
sg5
Nsg6
Nsg7
I4
sg8
Nsg9
g10
(g11
(S'S14'
p64
I0
I1
tp65
Rp66
(I3
S'|'
p67
NNNI14
I1
I0
tp68
bS'stability01178'
p69
tp70
Rp71
sg20
I4
sg21
I01
sg22
g23
sg24
g62
sa(dp72
g2
Nsg3
I01
sg4
I01
sg5
Nsg6
Nsg7
I5
sg8
Nsg9
g10
(g11
(S'S14'
p73
I0
I1
tp74
Rp75
(I3
S'|'
p76
NNNI14
I1
I0
tp77
bS'stability01893'
p78
tp79
Rp80
sg20
I5
sg21
I01
sg22
g23
sg24
g62
saS'finished training'
p81
a(dp82
g2
g10
(g11
(S'S4'
p83
I0
I1
tp84
Rp85
(I3
S'|'
p86
NNNI4
I1
I0
tp87
bS'gray'
p88
tp89
Rp90
sg3
I01
sg4
I01
sg5
g10
(g11
(S'S7'
p91
I0
I1
tp92
Rp93
(I3
S'|'
p94
NNNI7
I1
I0
tp95
bS'#808080'
p96
tp97
Rp98
sg6
g10
(g11
(S'S7'
p99
I0
I1
tp100
Rp101
(I3
S'|'
p102
NNNI7
I1
I0
tp103
bS'#00FFFF'
p104
tp105
Rp106
sg7
I7
sg8
g10
(g11
(S'S4'
p107
I0
I1
tp108
Rp109
(I3
S'|'
p110
NNNI4
I1
I0
tp111
bS'cyan'
p112
tp113
Rp114
sg9
g10
(g11
(S'S34'
p115
I0
I1
tp116
Rp117
(I3
S'|'
p118
NNNI34
I1
I0
tp119
bS'mass-tower_00015_1010101010~10-cb0'
p120
tp121
Rp122
sg20
I0
sg21
I00
sg22
S'experiment'
p123
sg24
g32
saS'query ratio'
p124
a(dp125
g2
g10
(g11
(S'S5'
p126
I0
I1
tp127
Rp128
(I3
S'|'
p129
NNNI5
I1
I0
tp130
bS'green'
p131
tp132
Rp133
sg3
I01
sg4
I01
sg5
g10
(g11
(S'S7'
p134
I0
I1
tp135
Rp136
(I3
S'|'
p137
NNNI7
I1
I0
tp138
bS'#00FF00'
p139
tp140
Rp141
sg6
g10
(g11
(S'S7'
p142
I0
I1
tp143
Rp144
(I3
S'|'
p145
NNNI7
I1
I0
tp146
bS'#FF00FF'
p147
tp148
Rp149
sg7
I9
sg8
g10
(g11
(S'S7'
p150
I0
I1
tp151
Rp152
(I3
S'|'
p153
NNNI7
I1
I0
tp154
bS'magenta'
p155
tp156
Rp157
sg9
g10
(g11
(S'S34'
p158
I0
I1
tp159
Rp160
(I3
S'|'
p161
NNNI34
I1
I0
tp162
bS'mass-tower_01441_1100100101~10-cb0'
p163
tp164
Rp165
sg20
I1
sg21
I00
sg22
g123
sg24
g62
sag124
a(dp166
g2
g10
(g11
(S'S3'
p167
I0
I1
tp168
Rp169
(I3
S'|'
p170
NNNI3
I1
I0
tp171
bS'red'
p172
tp173
Rp174
sg3
I01
sg4
I01
sg5
g10
(g11
(S'S7'
p175
I0
I1
tp176
Rp177
(I3
S'|'
p178
NNNI7
I1
I0
tp179
bS'#FF3333'
p180
tp181
Rp182
sg6
g10
(g11
(S'S7'
p183
I0
I1
tp184
Rp185
(I3
S'|'
p186
NNNI7
I1
I0
tp187
bS'#3366FF'
p188
tp189
Rp190
sg7
I11
sg8
g10
(g11
(S'S4'
p191
I0
I1
tp192
Rp193
(I3
S'|'
p194
NNNI4
I1
I0
tp195
bS'blue'
p196
tp197
Rp198
sg9
g10
(g11
(S'S34'
p199
I0
I1
tp200
Rp201
(I3
S'|'
p202
NNNI34
I1
I0
tp203
bS'mass-tower_00074_0010111001~10-cb0'
p204
tp205
Rp206
sg20
I2
sg21
I00
sg22
g123
sg24
g62
sag124
a(dp207
g2
g10
(g11
(S'S4'
p208
I0
I1
tp209
Rp210
(I3
S'|'
p211
NNNI4
I1
I0
tp212
bS'cyan'
p213
tp214
Rp215
sg3
I01
sg4
I01
sg5
g10
(g11
(S'S7'
p216
I0
I1
tp217
Rp218
(I3
S'|'
p219
NNNI7
I1
I0
tp220
bS'#00FFFF'
p221
tp222
Rp223
sg6
g10
(g11
(S'S7'
p224
I0
I1
tp225
Rp226
(I3
S'|'
p227
NNNI7
I1
I0
tp228
bS'#FFFF00'
p229
tp230
Rp231
sg7
I13
sg8
g10
(g11
(S'S6'
p232
I0
I1
tp233
Rp234
(I3
S'|'
p235
NNNI6
I1
I0
tp236
bS'yellow'
p237
tp238
Rp239
sg9
g10
(g11
(S'S34'
p240
I0
I1
tp241
Rp242
(I3
S'|'
p243
NNNI34
I1
I0
tp244
bS'mass-tower_00193_1010101010~10-cb0'
p245
tp246
Rp247
sg20
I3
sg21
I01
sg22
g123
sg24
g32
sag124
a(dp248
g2
g10
(g11
(S'S4'
p249
I0
I1
tp250
Rp251
(I3
S'|'
p252
NNNI4
I1
I0
tp253
bS'blue'
p254
tp255
Rp256
sg3
I01
sg4
I01
sg5
g10
(g11
(S'S7'
p257
I0
I1
tp258
Rp259
(I3
S'|'
p260
NNNI7
I1
I0
tp261
bS'#3366FF'
p262
tp263
Rp264
sg6
g10
(g11
(S'S7'
p265
I0
I1
tp266
Rp267
(I3
S'|'
p268
NNNI7
I1
I0
tp269
bS'#00FF00'
p270
tp271
Rp272
sg7
I15
sg8
g10
(g11
(S'S5'
p273
I0
I1
tp274
Rp275
(I3
S'|'
p276
NNNI5
I1
I0
tp277
bS'green'
p278
tp279
Rp280
sg9
g10
(g11
(S'S34'
p281
I0
I1
tp282
Rp283
(I3
S'|'
p284
NNNI34
I1
I0
tp285
bS'mass-tower_00260_0110110100~10-cb0'
p286
tp287
Rp288
sg20
I4
sg21
I01
sg22
g123
sg24
g62
sag124
a(dp289
g2
g10
(g11
(S'S6'
p290
I0
I1
tp291
Rp292
(I3
S'|'
p293
NNNI6
I1
I0
tp294
bS'orange'
p295
tp296
Rp297
sg3
I01
sg4
I01
sg5
g10
(g11
(S'S7'
p298
I0
I1
tp299
Rp300
(I3
S'|'
p301
NNNI7
I1
I0
tp302
bS'#FF7000'
p303
tp304
Rp305
sg6
g10
(g11
(S'S7'
p306
I0
I1
tp307
Rp308
(I3
S'|'
p309
NNNI7
I1
I0
tp310
bS'#00FFFF'
p311
tp312
Rp313
sg7
I17
sg8
g10
(g11
(S'S4'
p314
I0
I1
tp315
Rp316
(I3
S'|'
p317
NNNI4
I1
I0
tp318
bS'cyan'
p319
tp320
Rp321
sg9
g10
(g11
(S'S34'
p322
I0
I1
tp323
Rp324
(I3
S'|'
p325
NNNI34
I1
I0
tp326
bS'mass-tower_00102_0001011011~10-cb0'
p327
tp328
Rp329
sg20
I5
sg21
I00
sg22
g123
sg24
g32
sag124
a(dp330
g2
g10
(g11
(S'S7'
p331
I0
I1
tp332
Rp333
(I3
S'|'
p334
NNNI7
I1
I0
tp335
bS'magenta'
p336
tp337
Rp338
sg3
I01
sg4
I01
sg5
g10
(g11
(S'S7'
p339
I0
I1
tp340
Rp341
(I3
S'|'
p342
NNNI7
I1
I0
tp343
bS'#FF00FF'
p344
tp345
Rp346
sg6
g10
(g11
(S'S7'
p347
I0
I1
tp348
Rp349
(I3
S'|'
p350
NNNI7
I1
I0
tp351
bS'#FFFF00'
p352
tp353
Rp354
sg7
I19
sg8
g10
(g11
(S'S6'
p355
I0
I1
tp356
Rp357
(I3
S'|'
p358
NNNI6
I1
I0
tp359
bS'yellow'
p360
tp361
Rp362
sg9
g10
(g11
(S'S34'
p363
I0
I1
tp364
Rp365
(I3
S'|'
p366
NNNI34
I1
I0
tp367
bS'mass-tower_00160_0011011100~10-cb0'
p368
tp369
Rp370
sg20
I6
sg21
I01
sg22
g123
sg24
g32
sag124
a(dp371
g2
g10
(g11
(S'S5'
p372
I0
I1
tp373
Rp374
(I3
S'|'
p375
NNNI5
I1
I0
tp376
bS'green'
p377
tp378
Rp379
sg3
I01
sg4
I01
sg5
g10
(g11
(S'S7'
p380
I0
I1
tp381
Rp382
(I3
S'|'
p383
NNNI7
I1
I0
tp384
bS'#00FF00'
p385
tp386
Rp387
sg6
g10
(g11
(S'S7'
p388
I0
I1
tp389
Rp390
(I3
S'|'
p391
NNNI7
I1
I0
tp392
bS'#FF7000'
p393
tp394
Rp395
sg7
I21
sg8
g10
(g11
(S'S6'
p396
I0
I1
tp397
Rp398
(I3
S'|'
p399
NNNI6
I1
I0
tp400
bS'orange'
p401
tp402
Rp403
sg9
g10
(g11
(S'S34'
p404
I0
I1
tp405
Rp406
(I3
S'|'
p407
NNNI34
I1
I0
tp408
bS'mass-tower_00080_0110010110~10-cb0'
p409
tp410
Rp411
sg20
I7
sg21
I01
sg22
g123
sg24
g32
sag124
a(dp412
g2
g10
(g11
(S'S3'
p413
I0
I1
tp414
Rp415
(I3
S'|'
p416
NNNI3
I1
I0
tp417
bS'red'
p418
tp419
Rp420
sg3
I01
sg4
I01
sg5
g10
(g11
(S'S7'
p421
I0
I1
tp422
Rp423
(I3
S'|'
p424
NNNI7
I1
I0
tp425
bS'#FF3333'
p426
tp427
Rp428
sg6
g10
(g11
(S'S7'
p429
I0
I1
tp430
Rp431
(I3
S'|'
p432
NNNI7
I1
I0
tp433
bS'#808080'
p434
tp435
Rp436
sg7
I23
sg8
g10
(g11
(S'S4'
p437
I0
I1
tp438
Rp439
(I3
S'|'
p440
NNNI4
I1
I0
tp441
bS'gray'
p442
tp443
Rp444
sg9
g10
(g11
(S'S34'
p445
I0
I1
tp446
Rp447
(I3
S'|'
p448
NNNI34
I1
I0
tp449
bS'mass-tower_00009_1100010110~10-cb0'
p450
tp451
Rp452
sg20
I8
sg21
I00
sg22
g123
sg24
g32
sag124
a(dp453
g2
g10
(g11
(S'S4'
p454
I0
I1
tp455
Rp456
(I3
S'|'
p457
NNNI4
I1
I0
tp458
bS'blue'
p459
tp460
Rp461
sg3
I01
sg4
I01
sg5
g10
(g11
(S'S7'
p462
I0
I1
tp463
Rp464
(I3
S'|'
p465
NNNI7
I1
I0
tp466
bS'#3366FF'
p467
tp468
Rp469
sg6
g10
(g11
(S'S7'
p470
I0
I1
tp471
Rp472
(I3
S'|'
p473
NNNI7
I1
I0
tp474
bS'#FFFF00'
p475
tp476
Rp477
sg7
I25
sg8
g10
(g11
(S'S6'
p478
I0
I1
tp479
Rp480
(I3
S'|'
p481
NNNI6
I1
I0
tp482
bS'yellow'
p483
tp484
Rp485
sg9
g10
(g11
(S'S34'
p486
I0
I1
tp487
Rp488
(I3
S'|'
p489
NNNI34
I1
I0
tp490
bS'mass-tower_00524_1101001010~10-cb0'
p491
tp492
Rp493
sg20
I9
sg21
I01
sg22
g123
sg24
g62
sag124
a(dp494
g2
g10
(g11
(S'S4'
p495
I0
I1
tp496
Rp497
(I3
S'|'
p498
NNNI4
I1
I0
tp499
bS'gray'
p500
tp501
Rp502
sg3
I01
sg4
I01
sg5
g10
(g11
(S'S7'
p503
I0
I1
tp504
Rp505
(I3
S'|'
p506
NNNI7
I1
I0
tp507
bS'#808080'
p508
tp509
Rp510
sg6
g10
(g11
(S'S7'
p511
I0
I1
tp512
Rp513
(I3
S'|'
p514
NNNI7
I1
I0
tp515
bS'#FF00FF'
p516
tp517
Rp518
sg7
I27
sg8
g10
(g11
(S'S7'
p519
I0
I1
tp520
Rp521
(I3
S'|'
p522
NNNI7
I1
I0
tp523
bS'magenta'
p524
tp525
Rp526
sg9
g10
(g11
(S'S34'
p527
I0
I1
tp528
Rp529
(I3
S'|'
p530
NNNI34
I1
I0
tp531
bS'mass-tower_00271_1011000101~10-cb0'
p532
tp533
Rp534
sg20
I10
sg21
I00
sg22
g123
sg24
g32
sag124
a(dp535
g2
g10
(g11
(S'S3'
p536
I0
I1
tp537
Rp538
(I3
S'|'
p539
NNNI3
I1
I0
tp540
bS'red'
p541
tp542
Rp543
sg3
I01
sg4
I01
sg5
g10
(g11
(S'S7'
p544
I0
I1
tp545
Rp546
(I3
S'|'
p547
NNNI7
I1
I0
tp548
bS'#FF3333'
p549
tp550
Rp551
sg6
g10
(g11
(S'S7'
p552
I0
I1
tp553
Rp554
(I3
S'|'
p555
NNNI7
I1
I0
tp556
bS'#FFFF00'
p557
tp558
Rp559
sg7
I29
sg8
g10
(g11
(S'S6'
p560
I0
I1
tp561
Rp562
(I3
S'|'
p563
NNNI6
I1
I0
tp564
bS'yellow'
p565
tp566
Rp567
sg9
g10
(g11
(S'S34'
p568
I0
I1
tp569
Rp570
(I3
S'|'
p571
NNNI34
I1
I0
tp572
bS'mass-tower_00021_1010010110~10-cb0'
p573
tp574
Rp575
sg20
I11
sg21
I00
sg22
g123
sg24
g62
sag124
a(dp576
g2
g10
(g11
(S'S7'
p577
I0
I1
tp578
Rp579
(I3
S'|'
p580
NNNI7
I1
I0
tp581
bS'magenta'
p582
tp583
Rp584
sg3
I01
sg4
I01
sg5
g10
(g11
(S'S7'
p585
I0
I1
tp586
Rp587
(I3
S'|'
p588
NNNI7
I1
I0
tp589
bS'#FF00FF'
p590
tp591
Rp592
sg6
g10
(g11
(S'S7'
p593
I0
I1
tp594
Rp595
(I3
S'|'
p596
NNNI7
I1
I0
tp597
bS'#00FF00'
p598
tp599
Rp600
sg7
I31
sg8
g10
(g11
(S'S5'
p601
I0
I1
tp602
Rp603
(I3
S'|'
p604
NNNI5
I1
I0
tp605
bS'green'
p606
tp607
Rp608
sg9
g10
(g11
(S'S34'
p609
I0
I1
tp610
Rp611
(I3
S'|'
p612
NNNI34
I1
I0
tp613
bS'mass-tower_01264_0011111000~10-cb0'
p614
tp615
Rp616
sg20
I12
sg21
I01
sg22
g123
sg24
g32
sag124
a(dp617
g2
g10
(g11
(S'S6'
p618
I0
I1
tp619
Rp620
(I3
S'|'
p621
NNNI6
I1
I0
tp622
bS'yellow'
p623
tp624
Rp625
sg3
I01
sg4
I01
sg5
g10
(g11
(S'S7'
p626
I0
I1
tp627
Rp628
(I3
S'|'
p629
NNNI7
I1
I0
tp630
bS'#FFFF00'
p631
tp632
Rp633
sg6
g10
(g11
(S'S7'
p634
I0
I1
tp635
Rp636
(I3
S'|'
p637
NNNI7
I1
I0
tp638
bS'#00FFFF'
p639
tp640
Rp641
sg7
I33
sg8
g10
(g11
(S'S4'
p642
I0
I1
tp643
Rp644
(I3
S'|'
p645
NNNI4
I1
I0
tp646
bS'cyan'
p647
tp648
Rp649
sg9
g10
(g11
(S'S34'
p650
I0
I1
tp651
Rp652
(I3
S'|'
p653
NNNI34
I1
I0
tp654
bS'mass-tower_00279_1110000011~10-cb0'
p655
tp656
Rp657
sg20
I13
sg21
I01
sg22
g123
sg24
g62
sag124
a(dp658
g2
g10
(g11
(S'S4'
p659
I0
I1
tp660
Rp661
(I3
S'|'
p662
NNNI4
I1
I0
tp663
bS'gray'
p664
tp665
Rp666
sg3
I01
sg4
I01
sg5
g10
(g11
(S'S7'
p667
I0
I1
tp668
Rp669
(I3
S'|'
p670
NNNI7
I1
I0
tp671
bS'#808080'
p672
tp673
Rp674
sg6
g10
(g11
(S'S7'
p675
I0
I1
tp676
Rp677
(I3
S'|'
p678
NNNI7
I1
I0
tp679
bS'#FF3333'
p680
tp681
Rp682
sg7
I35
sg8
g10
(g11
(S'S3'
p683
I0
I1
tp684
Rp685
(I3
S'|'
p686
NNNI3
I1
I0
tp687
bS'red'
p688
tp689
Rp690
sg9
g10
(g11
(S'S34'
p691
I0
I1
tp692
Rp693
(I3
S'|'
p694
NNNI34
I1
I0
tp695
bS'mass-tower_00117_0110111000~10-cb0'
p696
tp697
Rp698
sg20
I14
sg21
I00
sg22
g123
sg24
g32
sag124
a(dp699
g2
g10
(g11
(S'S4'
p700
I0
I1
tp701
Rp702
(I3
S'|'
p703
NNNI4
I1
I0
tp704
bS'blue'
p705
tp706
Rp707
sg3
I01
sg4
I01
sg5
g10
(g11
(S'S7'
p708
I0
I1
tp709
Rp710
(I3
S'|'
p711
NNNI7
I1
I0
tp712
bS'#3366FF'
p713
tp714
Rp715
sg6
g10
(g11
(S'S7'
p716
I0
I1
tp717
Rp718
(I3
S'|'
p719
NNNI7
I1
I0
tp720
bS'#FFFF00'
p721
tp722
Rp723
sg7
I37
sg8
g10
(g11
(S'S6'
p724
I0
I1
tp725
Rp726
(I3
S'|'
p727
NNNI6
I1
I0
tp728
bS'yellow'
p729
tp730
Rp731
sg9
g10
(g11
(S'S34'
p732
I0
I1
tp733
Rp734
(I3
S'|'
p735
NNNI34
I1
I0
tp736
bS'mass-tower_00357_1010000111~10-cb0'
p737
tp738
Rp739
sg20
I15
sg21
I00
sg22
g123
sg24
g62
sag124
a(dp740
g2
g10
(g11
(S'S7'
p741
I0
I1
tp742
Rp743
(I3
S'|'
p744
NNNI7
I1
I0
tp745
bS'magenta'
p746
tp747
Rp748
sg3
I01
sg4
I01
sg5
g10
(g11
(S'S7'
p749
I0
I1
tp750
Rp751
(I3
S'|'
p752
NNNI7
I1
I0
tp753
bS'#FF00FF'
p754
tp755
Rp756
sg6
g10
(g11
(S'S7'
p757
I0
I1
tp758
Rp759
(I3
S'|'
p760
NNNI7
I1
I0
tp761
bS'#808080'
p762
tp763
Rp764
sg7
I39
sg8
g10
(g11
(S'S4'
p765
I0
I1
tp766
Rp767
(I3
S'|'
p768
NNNI4
I1
I0
tp769
bS'gray'
p770
tp771
Rp772
sg9
g10
(g11
(S'S34'
p773
I0
I1
tp774
Rp775
(I3
S'|'
p776
NNNI34
I1
I0
tp777
bS'mass-tower_00483_1010010011~10-cb0'
p778
tp779
Rp780
sg20
I16
sg21
I01
sg22
g123
sg24
g32
sag124
a(dp781
g2
g10
(g11
(S'S6'
p782
I0
I1
tp783
Rp784
(I3
S'|'
p785
NNNI6
I1
I0
tp786
bS'orange'
p787
tp788
Rp789
sg3
I01
sg4
I01
sg5
g10
(g11
(S'S7'
p790
I0
I1
tp791
Rp792
(I3
S'|'
p793
NNNI7
I1
I0
tp794
bS'#FF7000'
p795
tp796
Rp797
sg6
g10
(g11
(S'S7'
p798
I0
I1
tp799
Rp800
(I3
S'|'
p801
NNNI7
I1
I0
tp802
bS'#3366FF'
p803
tp804
Rp805
sg7
I41
sg8
g10
(g11
(S'S4'
p806
I0
I1
tp807
Rp808
(I3
S'|'
p809
NNNI4
I1
I0
tp810
bS'blue'
p811
tp812
Rp813
sg9
g10
(g11
(S'S34'
p814
I0
I1
tp815
Rp816
(I3
S'|'
p817
NNNI34
I1
I0
tp818
bS'mass-tower_00222_1001101001~10-cb0'
p819
tp820
Rp821
sg20
I17
sg21
I01
sg22
g123
sg24
g62
sag124
a(dp822
g2
g10
(g11
(S'S5'
p823
I0
I1
tp824
Rp825
(I3
S'|'
p826
NNNI5
I1
I0
tp827
bS'green'
p828
tp829
Rp830
sg3
I01
sg4
I01
sg5
g10
(g11
(S'S7'
p831
I0
I1
tp832
Rp833
(I3
S'|'
p834
NNNI7
I1
I0
tp835
bS'#00FF00'
p836
tp837
Rp838
sg6
g10
(g11
(S'S7'
p839
I0
I1
tp840
Rp841
(I3
S'|'
p842
NNNI7
I1
I0
tp843
bS'#808080'
p844
tp845
Rp846
sg7
I43
sg8
g10
(g11
(S'S4'
p847
I0
I1
tp848
Rp849
(I3
S'|'
p850
NNNI4
I1
I0
tp851
bS'gray'
p852
tp853
Rp854
sg9
g10
(g11
(S'S34'
p855
I0
I1
tp856
Rp857
(I3
S'|'
p858
NNNI34
I1
I0
tp859
bS'mass-tower_00018_0001011101~10-cb0'
p860
tp861
Rp862
sg20
I18
sg21
I00
sg22
g123
sg24
g62
sag124
a(dp863
g2
g10
(g11
(S'S7'
p864
I0
I1
tp865
Rp866
(I3
S'|'
p867
NNNI7
I1
I0
tp868
bS'magenta'
p869
tp870
Rp871
sg3
I01
sg4
I01
sg5
g10
(g11
(S'S7'
p872
I0
I1
tp873
Rp874
(I3
S'|'
p875
NNNI7
I1
I0
tp876
bS'#FF00FF'
p877
tp878
Rp879
sg6
g10
(g11
(S'S7'
p880
I0
I1
tp881
Rp882
(I3
S'|'
p883
NNNI7
I1
I0
tp884
bS'#00FFFF'
p885
tp886
Rp887
sg7
I45
sg8
g10
(g11
(S'S4'
p888
I0
I1
tp889
Rp890
(I3
S'|'
p891
NNNI4
I1
I0
tp892
bS'cyan'
p893
tp894
Rp895
sg9
g10
(g11
(S'S34'
p896
I0
I1
tp897
Rp898
(I3
S'|'
p899
NNNI34
I1
I0
tp900
bS'mass-tower_00316_0101010101~10-cb0'
p901
tp902
Rp903
sg20
I19
sg21
I01
sg22
g123
sg24
g62
sag124
aS'finished experiment'
p904
a(dp905
g2
Nsg3
I01
sg4
I01
sg5
Nsg6
Nsg7
I48
sg8
Nsg9
g10
(g11
(S'S14'
p906
I0
I1
tp907
Rp908
(I3
S'|'
p909
NNNI14
I1
I0
tp910
bS'stability01491'
p911
tp912
Rp913
sg20
I0
sg21
I00
sg22
S'posttest'
p914
sg24
g62
sa(dp915
g2
Nsg3
I01
sg4
I01
sg5
Nsg6
Nsg7
I49
sg8
Nsg9
g10
(g11
(S'S14'
p916
I0
I1
tp917
Rp918
(I3
S'|'
p919
NNNI14
I1
I0
tp920
bS'stability01893'
p921
tp922
Rp923
sg20
I1
sg21
I01
sg22
g914
sg24
g32
sa(dp924
g2
Nsg3
I01
sg4
I01
sg5
Nsg6
Nsg7
I50
sg8
Nsg9
g10
(g11
(S'S14'
p925
I0
I1
tp926
Rp927
(I3
S'|'
p928
NNNI14
I1
I0
tp929
bS'stability01023'
p930
tp931
Rp932
sg20
I2
sg21
I01
sg22
g914
sg24
g32
sa(dp933
g2
Nsg3
I01
sg4
I01
sg5
Nsg6
Nsg7
I51
sg8
Nsg9
g10
(g11
(S'S14'
p934
I0
I1
tp935
Rp936
(I3
S'|'
p937
NNNI14
I1
I0
tp938
bS'stability01178'
p939
tp940
Rp941
sg20
I3
sg21
I01
sg22
g914
sg24
g32
sa(dp942
g2
Nsg3
I01
sg4
I01
sg5
Nsg6
Nsg7
I52
sg8
Nsg9
g10
(g11
(S'S14'
p943
I0
I1
tp944
Rp945
(I3
S'|'
p946
NNNI14
I1
I0
tp947
bS'stability01654'
p948
tp949
Rp950
sg20
I4
sg21
I00
sg22
g914
sg24
g62
sa(dp951
g2
Nsg3
I01
sg4
I01
sg5
Nsg6
Nsg7
I53
sg8
Nsg9
g10
(g11
(S'S14'
p952
I0
I1
tp953
Rp954
(I3
S'|'
p955
NNNI14
I1
I0
tp956
bS'stability01967'
p957
tp958
Rp959
sg20
I5
sg21
I00
sg22
g914
sg24
g62
saS'finished posttest'
p960
a.