(lp0
(dp1
S'color1'
p2
NsS'trial'
p3
I0
sS'color0'
p4
NsS'index'
p5
I0
sS'stimulus'
p6
cnumpy.core.multiarray
scalar
p7
(cnumpy
dtype
p8
(S'S14'
p9
I0
I1
tp10
Rp11
(I3
S'|'
p12
NNNI14
I1
I0
tp13
bS'stability01654'
p14
tp15
Rp16
sS'ttype'
p17
S'training'
p18
sS'stable'
p19
I00
sS'video_fb'
p20
I01
sS'text_fb'
p21
I01
sa(dp22
g2
Nsg3
I1
sg4
Nsg5
I1
sg6
g7
(g8
(S'S14'
p23
I0
I1
tp24
Rp25
(I3
S'|'
p26
NNNI14
I1
I0
tp27
bS'stability01967'
p28
tp29
Rp30
sg17
g18
sg19
I00
sg20
I01
sg21
I01
sa(dp31
g2
Nsg3
I2
sg4
Nsg5
I2
sg6
g7
(g8
(S'S14'
p32
I0
I1
tp33
Rp34
(I3
S'|'
p35
NNNI14
I1
I0
tp36
bS'stability01023'
p37
tp38
Rp39
sg17
g18
sg19
I01
sg20
I01
sg21
I01
sa(dp40
g2
Nsg3
I3
sg4
Nsg5
I3
sg6
g7
(g8
(S'S14'
p41
I0
I1
tp42
Rp43
(I3
S'|'
p44
NNNI14
I1
I0
tp45
bS'stability01491'
p46
tp47
Rp48
sg17
g18
sg19
I00
sg20
I01
sg21
I01
sa(dp49
g2
Nsg3
I4
sg4
Nsg5
I4
sg6
g7
(g8
(S'S14'
p50
I0
I1
tp51
Rp52
(I3
S'|'
p53
NNNI14
I1
I0
tp54
bS'stability01178'
p55
tp56
Rp57
sg17
g18
sg19
I01
sg20
I01
sg21
I01
sa(dp58
g2
Nsg3
I5
sg4
Nsg5
I5
sg6
g7
(g8
(S'S14'
p59
I0
I1
tp60
Rp61
(I3
S'|'
p62
NNNI14
I1
I0
tp63
bS'stability01893'
p64
tp65
Rp66
sg17
g18
sg19
I01
sg20
I01
sg21
I01
saS'finished training'
p67
a(dp68
g2
g7
(g8
(S'S7'
p69
I0
I1
tp70
Rp71
(I3
S'|'
p72
NNNI7
I1
I0
tp73
bS'#FF0033'
p74
tp75
Rp76
sg3
I0
sg4
g7
(g8
(S'S7'
p77
I0
I1
tp78
Rp79
(I3
S'|'
p80
NNNI7
I1
I0
tp81
bS'#0033FF'
p82
tp83
Rp84
sg5
I7
sg6
g7
(g8
(S'S34'
p85
I0
I1
tp86
Rp87
(I3
S'|'
p88
NNNI34
I1
I0
tp89
bS'mass-tower_00271_1011000101~10-cb1'
p90
tp91
Rp92
sg17
S'experiment'
p93
sg19
I00
sg20
I01
sg21
I01
saS'query ratio'
p94
a(dp95
g2
g7
(g8
(S'S7'
p96
I0
I1
tp97
Rp98
(I3
S'|'
p99
NNNI7
I1
I0
tp100
bS'#FF00FF'
p101
tp102
Rp103
sg3
I1
sg4
g7
(g8
(S'S7'
p104
I0
I1
tp105
Rp106
(I3
S'|'
p107
NNNI7
I1
I0
tp108
bS'#FFFF00'
p109
tp110
Rp111
sg5
I9
sg6
g7
(g8
(S'S34'
p112
I0
I1
tp113
Rp114
(I3
S'|'
p115
NNNI34
I1
I0
tp116
bS'mass-tower_00080_0110010110~10-cb1'
p117
tp118
Rp119
sg17
g93
sg19
I01
sg20
I01
sg21
I01
sag94
a(dp120
g2
g7
(g8
(S'S7'
p121
I0
I1
tp122
Rp123
(I3
S'|'
p124
NNNI7
I1
I0
tp125
bS'#FFFF00'
p126
tp127
Rp128
sg3
I2
sg4
g7
(g8
(S'S7'
p129
I0
I1
tp130
Rp131
(I3
S'|'
p132
NNNI7
I1
I0
tp133
bS'#0033FF'
p134
tp135
Rp136
sg5
I11
sg6
g7
(g8
(S'S34'
p137
I0
I1
tp138
Rp139
(I3
S'|'
p140
NNNI34
I1
I0
tp141
bS'mass-tower_00015_1010101010~10-cb1'
p142
tp143
Rp144
sg17
g93
sg19
I00
sg20
I01
sg21
I01
sag94
a(dp145
g2
g7
(g8
(S'S7'
p146
I0
I1
tp147
Rp148
(I3
S'|'
p149
NNNI7
I1
I0
tp150
bS'#FFFF00'
p151
tp152
Rp153
sg3
I3
sg4
g7
(g8
(S'S7'
p154
I0
I1
tp155
Rp156
(I3
S'|'
p157
NNNI7
I1
I0
tp158
bS'#FF0033'
p159
tp160
Rp161
sg5
I13
sg6
g7
(g8
(S'S34'
p162
I0
I1
tp163
Rp164
(I3
S'|'
p165
NNNI34
I1
I0
tp166
bS'mass-tower_00524_1101001010~10-cb1'
p167
tp168
Rp169
sg17
g93
sg19
I01
sg20
I01
sg21
I01
sag94
a(dp170
g2
g7
(g8
(S'S7'
p171
I0
I1
tp172
Rp173
(I3
S'|'
p174
NNNI7
I1
I0
tp175
bS'#FFFF00'
p176
tp177
Rp178
sg3
I4
sg4
g7
(g8
(S'S7'
p179
I0
I1
tp180
Rp181
(I3
S'|'
p182
NNNI7
I1
I0
tp183
bS'#FF00FF'
p184
tp185
Rp186
sg5
I15
sg6
g7
(g8
(S'S34'
p187
I0
I1
tp188
Rp189
(I3
S'|'
p190
NNNI34
I1
I0
tp191
bS'mass-tower_00260_0110110100~10-cb1'
p192
tp193
Rp194
sg17
g93
sg19
I01
sg20
I01
sg21
I01
sag94
a(dp195
g2
g7
(g8
(S'S7'
p196
I0
I1
tp197
Rp198
(I3
S'|'
p199
NNNI7
I1
I0
tp200
bS'#0033FF'
p201
tp202
Rp203
sg3
I5
sg4
g7
(g8
(S'S7'
p204
I0
I1
tp205
Rp206
(I3
S'|'
p207
NNNI7
I1
I0
tp208
bS'#FF00FF'
p209
tp210
Rp211
sg5
I17
sg6
g7
(g8
(S'S34'
p212
I0
I1
tp213
Rp214
(I3
S'|'
p215
NNNI34
I1
I0
tp216
bS'mass-tower_00193_1010101010~10-cb1'
p217
tp218
Rp219
sg17
g93
sg19
I01
sg20
I01
sg21
I01
sag94
a(dp220
g2
g7
(g8
(S'S7'
p221
I0
I1
tp222
Rp223
(I3
S'|'
p224
NNNI7
I1
I0
tp225
bS'#FF7000'
p226
tp227
Rp228
sg3
I6
sg4
g7
(g8
(S'S7'
p229
I0
I1
tp230
Rp231
(I3
S'|'
p232
NNNI7
I1
I0
tp233
bS'#0033FF'
p234
tp235
Rp236
sg5
I19
sg6
g7
(g8
(S'S34'
p237
I0
I1
tp238
Rp239
(I3
S'|'
p240
NNNI34
I1
I0
tp241
bS'mass-tower_00018_0001011101~10-cb1'
p242
tp243
Rp244
sg17
g93
sg19
I00
sg20
I01
sg21
I01
sag94
a(dp245
g2
g7
(g8
(S'S7'
p246
I0
I1
tp247
Rp248
(I3
S'|'
p249
NNNI7
I1
I0
tp250
bS'#FF00FF'
p251
tp252
Rp253
sg3
I7
sg4
g7
(g8
(S'S7'
p254
I0
I1
tp255
Rp256
(I3
S'|'
p257
NNNI7
I1
I0
tp258
bS'#0033FF'
p259
tp260
Rp261
sg5
I21
sg6
g7
(g8
(S'S34'
p262
I0
I1
tp263
Rp264
(I3
S'|'
p265
NNNI34
I1
I0
tp266
bS'mass-tower_00021_1010010110~10-cb1'
p267
tp268
Rp269
sg17
g93
sg19
I00
sg20
I01
sg21
I01
sag94
a(dp270
g2
g7
(g8
(S'S7'
p271
I0
I1
tp272
Rp273
(I3
S'|'
p274
NNNI7
I1
I0
tp275
bS'#0033FF'
p276
tp277
Rp278
sg3
I8
sg4
g7
(g8
(S'S7'
p279
I0
I1
tp280
Rp281
(I3
S'|'
p282
NNNI7
I1
I0
tp283
bS'#FFFF00'
p284
tp285
Rp286
sg5
I23
sg6
g7
(g8
(S'S34'
p287
I0
I1
tp288
Rp289
(I3
S'|'
p290
NNNI34
I1
I0
tp291
bS'mass-tower_00357_1010000111~10-cb1'
p292
tp293
Rp294
sg17
g93
sg19
I00
sg20
I01
sg21
I01
sag94
a(dp295
g2
g7
(g8
(S'S7'
p296
I0
I1
tp297
Rp298
(I3
S'|'
p299
NNNI7
I1
I0
tp300
bS'#FF00FF'
p301
tp302
Rp303
sg3
I9
sg4
g7
(g8
(S'S7'
p304
I0
I1
tp305
Rp306
(I3
S'|'
p307
NNNI7
I1
I0
tp308
bS'#00FF00'
p309
tp310
Rp311
sg5
I25
sg6
g7
(g8
(S'S34'
p312
I0
I1
tp313
Rp314
(I3
S'|'
p315
NNNI34
I1
I0
tp316
bS'mass-tower_00279_1110000011~10-cb1'
p317
tp318
Rp319
sg17
g93
sg19
I01
sg20
I01
sg21
I01
sag94
a(dp320
g2
g7
(g8
(S'S7'
p321
I0
I1
tp322
Rp323
(I3
S'|'
p324
NNNI7
I1
I0
tp325
bS'#FF7000'
p326
tp327
Rp328
sg3
I10
sg4
g7
(g8
(S'S7'
p329
I0
I1
tp330
Rp331
(I3
S'|'
p332
NNNI7
I1
I0
tp333
bS'#0033FF'
p334
tp335
Rp336
sg5
I27
sg6
g7
(g8
(S'S34'
p337
I0
I1
tp338
Rp339
(I3
S'|'
p340
NNNI34
I1
I0
tp341
bS'mass-tower_00009_1100010110~10-cb1'
p342
tp343
Rp344
sg17
g93
sg19
I00
sg20
I01
sg21
I01
sag94
a(dp345
g2
g7
(g8
(S'S7'
p346
I0
I1
tp347
Rp348
(I3
S'|'
p349
NNNI7
I1
I0
tp350
bS'#00FF00'
p351
tp352
Rp353
sg3
I11
sg4
g7
(g8
(S'S7'
p354
I0
I1
tp355
Rp356
(I3
S'|'
p357
NNNI7
I1
I0
tp358
bS'#FF00FF'
p359
tp360
Rp361
sg5
I29
sg6
g7
(g8
(S'S34'
p362
I0
I1
tp363
Rp364
(I3
S'|'
p365
NNNI34
I1
I0
tp366
bS'mass-tower_00074_0010111001~10-cb1'
p367
tp368
Rp369
sg17
g93
sg19
I00
sg20
I01
sg21
I01
sag94
a(dp370
g2
g7
(g8
(S'S7'
p371
I0
I1
tp372
Rp373
(I3
S'|'
p374
NNNI7
I1
I0
tp375
bS'#0033FF'
p376
tp377
Rp378
sg3
I12
sg4
g7
(g8
(S'S7'
p379
I0
I1
tp380
Rp381
(I3
S'|'
p382
NNNI7
I1
I0
tp383
bS'#FF0033'
p384
tp385
Rp386
sg5
I31
sg6
g7
(g8
(S'S34'
p387
I0
I1
tp388
Rp389
(I3
S'|'
p390
NNNI34
I1
I0
tp391
bS'mass-tower_00102_0001011011~10-cb1'
p392
tp393
Rp394
sg17
g93
sg19
I00
sg20
I01
sg21
I01
sag94
a(dp395
g2
g7
(g8
(S'S7'
p396
I0
I1
tp397
Rp398
(I3
S'|'
p399
NNNI7
I1
I0
tp400
bS'#00FF00'
p401
tp402
Rp403
sg3
I13
sg4
g7
(g8
(S'S7'
p404
I0
I1
tp405
Rp406
(I3
S'|'
p407
NNNI7
I1
I0
tp408
bS'#0033FF'
p409
tp410
Rp411
sg5
I33
sg6
g7
(g8
(S'S34'
p412
I0
I1
tp413
Rp414
(I3
S'|'
p415
NNNI34
I1
I0
tp416
bS'mass-tower_00117_0110111000~10-cb1'
p417
tp418
Rp419
sg17
g93
sg19
I00
sg20
I01
sg21
I01
sag94
a(dp420
g2
g7
(g8
(S'S7'
p421
I0
I1
tp422
Rp423
(I3
S'|'
p424
NNNI7
I1
I0
tp425
bS'#0033FF'
p426
tp427
Rp428
sg3
I14
sg4
g7
(g8
(S'S7'
p429
I0
I1
tp430
Rp431
(I3
S'|'
p432
NNNI7
I1
I0
tp433
bS'#FFFF00'
p434
tp435
Rp436
sg5
I35
sg6
g7
(g8
(S'S34'
p437
I0
I1
tp438
Rp439
(I3
S'|'
p440
NNNI34
I1
I0
tp441
bS'mass-tower_01264_0011111000~10-cb1'
p442
tp443
Rp444
sg17
g93
sg19
I01
sg20
I01
sg21
I01
sag94
a(dp445
g2
g7
(g8
(S'S7'
p446
I0
I1
tp447
Rp448
(I3
S'|'
p449
NNNI7
I1
I0
tp450
bS'#00FF00'
p451
tp452
Rp453
sg3
I15
sg4
g7
(g8
(S'S7'
p454
I0
I1
tp455
Rp456
(I3
S'|'
p457
NNNI7
I1
I0
tp458
bS'#0033FF'
p459
tp460
Rp461
sg5
I37
sg6
g7
(g8
(S'S34'
p462
I0
I1
tp463
Rp464
(I3
S'|'
p465
NNNI34
I1
I0
tp466
bS'mass-tower_00483_1010010011~10-cb1'
p467
tp468
Rp469
sg17
g93
sg19
I01
sg20
I01
sg21
I01
sag94
a(dp470
g2
g7
(g8
(S'S7'
p471
I0
I1
tp472
Rp473
(I3
S'|'
p474
NNNI7
I1
I0
tp475
bS'#0033FF'
p476
tp477
Rp478
sg3
I16
sg4
g7
(g8
(S'S7'
p479
I0
I1
tp480
Rp481
(I3
S'|'
p482
NNNI7
I1
I0
tp483
bS'#00FF00'
p484
tp485
Rp486
sg5
I39
sg6
g7
(g8
(S'S34'
p487
I0
I1
tp488
Rp489
(I3
S'|'
p490
NNNI34
I1
I0
tp491
bS'mass-tower_00222_1001101001~10-cb1'
p492
tp493
Rp494
sg17
g93
sg19
I01
sg20
I01
sg21
I01
sag94
a(dp495
g2
g7
(g8
(S'S7'
p496
I0
I1
tp497
Rp498
(I3
S'|'
p499
NNNI7
I1
I0
tp500
bS'#FF0033'
p501
tp502
Rp503
sg3
I17
sg4
g7
(g8
(S'S7'
p504
I0
I1
tp505
Rp506
(I3
S'|'
p507
NNNI7
I1
I0
tp508
bS'#FFFF00'
p509
tp510
Rp511
sg5
I41
sg6
g7
(g8
(S'S34'
p512
I0
I1
tp513
Rp514
(I3
S'|'
p515
NNNI34
I1
I0
tp516
bS'mass-tower_01441_1100100101~10-cb1'
p517
tp518
Rp519
sg17
g93
sg19
I00
sg20
I01
sg21
I01
sag94
a(dp520
g2
g7
(g8
(S'S7'
p521
I0
I1
tp522
Rp523
(I3
S'|'
p524
NNNI7
I1
I0
tp525
bS'#FF0033'
p526
tp527
Rp528
sg3
I18
sg4
g7
(g8
(S'S7'
p529
I0
I1
tp530
Rp531
(I3
S'|'
p532
NNNI7
I1
I0
tp533
bS'#0033FF'
p534
tp535
Rp536
sg5
I43
sg6
g7
(g8
(S'S34'
p537
I0
I1
tp538
Rp539
(I3
S'|'
p540
NNNI34
I1
I0
tp541
bS'mass-tower_00160_0011011100~10-cb1'
p542
tp543
Rp544
sg17
g93
sg19
I01
sg20
I01
sg21
I01
sag94
a(dp545
g2
g7
(g8
(S'S7'
p546
I0
I1
tp547
Rp548
(I3
S'|'
p549
NNNI7
I1
I0
tp550
bS'#FF7000'
p551
tp552
Rp553
sg3
I19
sg4
g7
(g8
(S'S7'
p554
I0
I1
tp555
Rp556
(I3
S'|'
p557
NNNI7
I1
I0
tp558
bS'#0033FF'
p559
tp560
Rp561
sg5
I45
sg6
g7
(g8
(S'S34'
p562
I0
I1
tp563
Rp564
(I3
S'|'
p565
NNNI34
I1
I0
tp566
bS'mass-tower_00316_0101010101~10-cb1'
p567
tp568
Rp569
sg17
g93
sg19
I01
sg20
I01
sg21
I01
sag94
aS'finished experiment'
p570
a(dp571
g2
Nsg3
I0
sg4
Nsg5
I48
sg6
g7
(g8
(S'S14'
p572
I0
I1
tp573
Rp574
(I3
S'|'
p575
NNNI14
I1
I0
tp576
bS'stability01491'
p577
tp578
Rp579
sg17
S'posttest'
p580
sg19
I00
sg20
I01
sg21
I01
sa(dp581
g2
Nsg3
I1
sg4
Nsg5
I49
sg6
g7
(g8
(S'S14'
p582
I0
I1
tp583
Rp584
(I3
S'|'
p585
NNNI14
I1
I0
tp586
bS'stability01893'
p587
tp588
Rp589
sg17
g580
sg19
I01
sg20
I01
sg21
I01
sa(dp590
g2
Nsg3
I2
sg4
Nsg5
I50
sg6
g7
(g8
(S'S14'
p591
I0
I1
tp592
Rp593
(I3
S'|'
p594
NNNI14
I1
I0
tp595
bS'stability01178'
p596
tp597
Rp598
sg17
g580
sg19
I01
sg20
I01
sg21
I01
sa(dp599
g2
Nsg3
I3
sg4
Nsg5
I51
sg6
g7
(g8
(S'S14'
p600
I0
I1
tp601
Rp602
(I3
S'|'
p603
NNNI14
I1
I0
tp604
bS'stability01654'
p605
tp606
Rp607
sg17
g580
sg19
I00
sg20
I01
sg21
I01
sa(dp608
g2
Nsg3
I4
sg4
Nsg5
I52
sg6
g7
(g8
(S'S14'
p609
I0
I1
tp610
Rp611
(I3
S'|'
p612
NNNI14
I1
I0
tp613
bS'stability01967'
p614
tp615
Rp616
sg17
g580
sg19
I00
sg20
I01
sg21
I01
sa(dp617
g2
Nsg3
I5
sg4
Nsg5
I53
sg6
g7
(g8
(S'S14'
p618
I0
I1
tp619
Rp620
(I3
S'|'
p621
NNNI14
I1
I0
tp622
bS'stability01023'
p623
tp624
Rp625
sg17
g580
sg19
I01
sg20
I01
sg21
I01
saS'finished posttest'
p626
a.