(lp0
(dp1
S'color1_name'
p2
NsS'video_fb'
p3
I01
sS'text_fb'
p4
I01
sS'color1'
p5
NsS'color0'
p6
NsS'index'
p7
I0
sS'color0_name'
p8
NsS'stimulus'
p9
cnumpy.core.multiarray
scalar
p10
(cnumpy
dtype
p11
(S'S14'
p12
I0
I1
tp13
Rp14
(I3
S'|'
p15
NNNI14
I1
I0
tp16
bS'stability01654'
p17
tp18
Rp19
sS'trial'
p20
I0
sS'stable'
p21
I00
sS'ttype'
p22
S'training'
p23
sa(dp24
g2
Nsg3
I01
sg4
I01
sg5
Nsg6
Nsg7
I1
sg8
Nsg9
g10
(g11
(S'S14'
p25
I0
I1
tp26
Rp27
(I3
S'|'
p28
NNNI14
I1
I0
tp29
bS'stability01967'
p30
tp31
Rp32
sg20
I1
sg21
I00
sg22
g23
sa(dp33
g2
Nsg3
I01
sg4
I01
sg5
Nsg6
Nsg7
I2
sg8
Nsg9
g10
(g11
(S'S14'
p34
I0
I1
tp35
Rp36
(I3
S'|'
p37
NNNI14
I1
I0
tp38
bS'stability01023'
p39
tp40
Rp41
sg20
I2
sg21
I01
sg22
g23
sa(dp42
g2
Nsg3
I01
sg4
I01
sg5
Nsg6
Nsg7
I3
sg8
Nsg9
g10
(g11
(S'S14'
p43
I0
I1
tp44
Rp45
(I3
S'|'
p46
NNNI14
I1
I0
tp47
bS'stability01491'
p48
tp49
Rp50
sg20
I3
sg21
I00
sg22
g23
sa(dp51
g2
Nsg3
I01
sg4
I01
sg5
Nsg6
Nsg7
I4
sg8
Nsg9
g10
(g11
(S'S14'
p52
I0
I1
tp53
Rp54
(I3
S'|'
p55
NNNI14
I1
I0
tp56
bS'stability01178'
p57
tp58
Rp59
sg20
I4
sg21
I01
sg22
g23
sa(dp60
g2
Nsg3
I01
sg4
I01
sg5
Nsg6
Nsg7
I5
sg8
Nsg9
g10
(g11
(S'S14'
p61
I0
I1
tp62
Rp63
(I3
S'|'
p64
NNNI14
I1
I0
tp65
bS'stability01893'
p66
tp67
Rp68
sg20
I5
sg21
I01
sg22
g23
saS'finished training'
p69
a(dp70
g2
g10
(g11
(S'S4'
p71
I0
I1
tp72
Rp73
(I3
S'|'
p74
NNNI4
I1
I0
tp75
bS'gray'
p76
tp77
Rp78
sg3
I01
sg4
I01
sg5
g10
(g11
(S'S7'
p79
I0
I1
tp80
Rp81
(I3
S'|'
p82
NNNI7
I1
I0
tp83
bS'#808080'
p84
tp85
Rp86
sg6
g10
(g11
(S'S7'
p87
I0
I1
tp88
Rp89
(I3
S'|'
p90
NNNI7
I1
I0
tp91
bS'#FF00FF'
p92
tp93
Rp94
sg7
I7
sg8
g10
(g11
(S'S7'
p95
I0
I1
tp96
Rp97
(I3
S'|'
p98
NNNI7
I1
I0
tp99
bS'magenta'
p100
tp101
Rp102
sg9
g10
(g11
(S'S34'
p103
I0
I1
tp104
Rp105
(I3
S'|'
p106
NNNI34
I1
I0
tp107
bS'mass-tower_00271_1011000101~10-cb0'
p108
tp109
Rp110
sg20
I0
sg21
I00
sg22
S'experiment'
p111
saS'query ratio'
p112
a(dp113
g2
g10
(g11
(S'S5'
p114
I0
I1
tp115
Rp116
(I3
S'|'
p117
NNNI5
I1
I0
tp118
bS'green'
p119
tp120
Rp121
sg3
I01
sg4
I01
sg5
g10
(g11
(S'S7'
p122
I0
I1
tp123
Rp124
(I3
S'|'
p125
NNNI7
I1
I0
tp126
bS'#00FF00'
p127
tp128
Rp129
sg6
g10
(g11
(S'S7'
p130
I0
I1
tp131
Rp132
(I3
S'|'
p133
NNNI7
I1
I0
tp134
bS'#FF7000'
p135
tp136
Rp137
sg7
I9
sg8
g10
(g11
(S'S6'
p138
I0
I1
tp139
Rp140
(I3
S'|'
p141
NNNI6
I1
I0
tp142
bS'orange'
p143
tp144
Rp145
sg9
g10
(g11
(S'S34'
p146
I0
I1
tp147
Rp148
(I3
S'|'
p149
NNNI34
I1
I0
tp150
bS'mass-tower_00080_0110010110~10-cb0'
p151
tp152
Rp153
sg20
I1
sg21
I01
sg22
g111
sag112
a(dp154
g2
g10
(g11
(S'S4'
p155
I0
I1
tp156
Rp157
(I3
S'|'
p158
NNNI4
I1
I0
tp159
bS'gray'
p160
tp161
Rp162
sg3
I01
sg4
I01
sg5
g10
(g11
(S'S7'
p163
I0
I1
tp164
Rp165
(I3
S'|'
p166
NNNI7
I1
I0
tp167
bS'#808080'
p168
tp169
Rp170
sg6
g10
(g11
(S'S7'
p171
I0
I1
tp172
Rp173
(I3
S'|'
p174
NNNI7
I1
I0
tp175
bS'#00FFFF'
p176
tp177
Rp178
sg7
I11
sg8
g10
(g11
(S'S4'
p179
I0
I1
tp180
Rp181
(I3
S'|'
p182
NNNI4
I1
I0
tp183
bS'cyan'
p184
tp185
Rp186
sg9
g10
(g11
(S'S34'
p187
I0
I1
tp188
Rp189
(I3
S'|'
p190
NNNI34
I1
I0
tp191
bS'mass-tower_00015_1010101010~10-cb0'
p192
tp193
Rp194
sg20
I2
sg21
I00
sg22
g111
sag112
a(dp195
g2
g10
(g11
(S'S4'
p196
I0
I1
tp197
Rp198
(I3
S'|'
p199
NNNI4
I1
I0
tp200
bS'blue'
p201
tp202
Rp203
sg3
I01
sg4
I01
sg5
g10
(g11
(S'S7'
p204
I0
I1
tp205
Rp206
(I3
S'|'
p207
NNNI7
I1
I0
tp208
bS'#3366FF'
p209
tp210
Rp211
sg6
g10
(g11
(S'S7'
p212
I0
I1
tp213
Rp214
(I3
S'|'
p215
NNNI7
I1
I0
tp216
bS'#FFFF00'
p217
tp218
Rp219
sg7
I13
sg8
g10
(g11
(S'S6'
p220
I0
I1
tp221
Rp222
(I3
S'|'
p223
NNNI6
I1
I0
tp224
bS'yellow'
p225
tp226
Rp227
sg9
g10
(g11
(S'S34'
p228
I0
I1
tp229
Rp230
(I3
S'|'
p231
NNNI34
I1
I0
tp232
bS'mass-tower_00524_1101001010~10-cb0'
p233
tp234
Rp235
sg20
I3
sg21
I01
sg22
g111
sag112
a(dp236
g2
g10
(g11
(S'S4'
p237
I0
I1
tp238
Rp239
(I3
S'|'
p240
NNNI4
I1
I0
tp241
bS'blue'
p242
tp243
Rp244
sg3
I01
sg4
I01
sg5
g10
(g11
(S'S7'
p245
I0
I1
tp246
Rp247
(I3
S'|'
p248
NNNI7
I1
I0
tp249
bS'#3366FF'
p250
tp251
Rp252
sg6
g10
(g11
(S'S7'
p253
I0
I1
tp254
Rp255
(I3
S'|'
p256
NNNI7
I1
I0
tp257
bS'#00FF00'
p258
tp259
Rp260
sg7
I15
sg8
g10
(g11
(S'S5'
p261
I0
I1
tp262
Rp263
(I3
S'|'
p264
NNNI5
I1
I0
tp265
bS'green'
p266
tp267
Rp268
sg9
g10
(g11
(S'S34'
p269
I0
I1
tp270
Rp271
(I3
S'|'
p272
NNNI34
I1
I0
tp273
bS'mass-tower_00260_0110110100~10-cb0'
p274
tp275
Rp276
sg20
I4
sg21
I01
sg22
g111
sag112
a(dp277
g2
g10
(g11
(S'S4'
p278
I0
I1
tp279
Rp280
(I3
S'|'
p281
NNNI4
I1
I0
tp282
bS'cyan'
p283
tp284
Rp285
sg3
I01
sg4
I01
sg5
g10
(g11
(S'S7'
p286
I0
I1
tp287
Rp288
(I3
S'|'
p289
NNNI7
I1
I0
tp290
bS'#00FFFF'
p291
tp292
Rp293
sg6
g10
(g11
(S'S7'
p294
I0
I1
tp295
Rp296
(I3
S'|'
p297
NNNI7
I1
I0
tp298
bS'#FFFF00'
p299
tp300
Rp301
sg7
I17
sg8
g10
(g11
(S'S6'
p302
I0
I1
tp303
Rp304
(I3
S'|'
p305
NNNI6
I1
I0
tp306
bS'yellow'
p307
tp308
Rp309
sg9
g10
(g11
(S'S34'
p310
I0
I1
tp311
Rp312
(I3
S'|'
p313
NNNI34
I1
I0
tp314
bS'mass-tower_00193_1010101010~10-cb0'
p315
tp316
Rp317
sg20
I5
sg21
I01
sg22
g111
sag112
a(dp318
g2
g10
(g11
(S'S5'
p319
I0
I1
tp320
Rp321
(I3
S'|'
p322
NNNI5
I1
I0
tp323
bS'green'
p324
tp325
Rp326
sg3
I01
sg4
I01
sg5
g10
(g11
(S'S7'
p327
I0
I1
tp328
Rp329
(I3
S'|'
p330
NNNI7
I1
I0
tp331
bS'#00FF00'
p332
tp333
Rp334
sg6
g10
(g11
(S'S7'
p335
I0
I1
tp336
Rp337
(I3
S'|'
p338
NNNI7
I1
I0
tp339
bS'#808080'
p340
tp341
Rp342
sg7
I19
sg8
g10
(g11
(S'S4'
p343
I0
I1
tp344
Rp345
(I3
S'|'
p346
NNNI4
I1
I0
tp347
bS'gray'
p348
tp349
Rp350
sg9
g10
(g11
(S'S34'
p351
I0
I1
tp352
Rp353
(I3
S'|'
p354
NNNI34
I1
I0
tp355
bS'mass-tower_00018_0001011101~10-cb0'
p356
tp357
Rp358
sg20
I6
sg21
I00
sg22
g111
sag112
a(dp359
g2
g10
(g11
(S'S3'
p360
I0
I1
tp361
Rp362
(I3
S'|'
p363
NNNI3
I1
I0
tp364
bS'red'
p365
tp366
Rp367
sg3
I01
sg4
I01
sg5
g10
(g11
(S'S7'
p368
I0
I1
tp369
Rp370
(I3
S'|'
p371
NNNI7
I1
I0
tp372
bS'#FF3333'
p373
tp374
Rp375
sg6
g10
(g11
(S'S7'
p376
I0
I1
tp377
Rp378
(I3
S'|'
p379
NNNI7
I1
I0
tp380
bS'#FFFF00'
p381
tp382
Rp383
sg7
I21
sg8
g10
(g11
(S'S6'
p384
I0
I1
tp385
Rp386
(I3
S'|'
p387
NNNI6
I1
I0
tp388
bS'yellow'
p389
tp390
Rp391
sg9
g10
(g11
(S'S34'
p392
I0
I1
tp393
Rp394
(I3
S'|'
p395
NNNI34
I1
I0
tp396
bS'mass-tower_00021_1010010110~10-cb0'
p397
tp398
Rp399
sg20
I7
sg21
I00
sg22
g111
sag112
a(dp400
g2
g10
(g11
(S'S4'
p401
I0
I1
tp402
Rp403
(I3
S'|'
p404
NNNI4
I1
I0
tp405
bS'blue'
p406
tp407
Rp408
sg3
I01
sg4
I01
sg5
g10
(g11
(S'S7'
p409
I0
I1
tp410
Rp411
(I3
S'|'
p412
NNNI7
I1
I0
tp413
bS'#3366FF'
p414
tp415
Rp416
sg6
g10
(g11
(S'S7'
p417
I0
I1
tp418
Rp419
(I3
S'|'
p420
NNNI7
I1
I0
tp421
bS'#FFFF00'
p422
tp423
Rp424
sg7
I23
sg8
g10
(g11
(S'S6'
p425
I0
I1
tp426
Rp427
(I3
S'|'
p428
NNNI6
I1
I0
tp429
bS'yellow'
p430
tp431
Rp432
sg9
g10
(g11
(S'S34'
p433
I0
I1
tp434
Rp435
(I3
S'|'
p436
NNNI34
I1
I0
tp437
bS'mass-tower_00357_1010000111~10-cb0'
p438
tp439
Rp440
sg20
I8
sg21
I00
sg22
g111
sag112
a(dp441
g2
g10
(g11
(S'S6'
p442
I0
I1
tp443
Rp444
(I3
S'|'
p445
NNNI6
I1
I0
tp446
bS'yellow'
p447
tp448
Rp449
sg3
I01
sg4
I01
sg5
g10
(g11
(S'S7'
p450
I0
I1
tp451
Rp452
(I3
S'|'
p453
NNNI7
I1
I0
tp454
bS'#FFFF00'
p455
tp456
Rp457
sg6
g10
(g11
(S'S7'
p458
I0
I1
tp459
Rp460
(I3
S'|'
p461
NNNI7
I1
I0
tp462
bS'#00FFFF'
p463
tp464
Rp465
sg7
I25
sg8
g10
(g11
(S'S4'
p466
I0
I1
tp467
Rp468
(I3
S'|'
p469
NNNI4
I1
I0
tp470
bS'cyan'
p471
tp472
Rp473
sg9
g10
(g11
(S'S34'
p474
I0
I1
tp475
Rp476
(I3
S'|'
p477
NNNI34
I1
I0
tp478
bS'mass-tower_00279_1110000011~10-cb0'
p479
tp480
Rp481
sg20
I9
sg21
I01
sg22
g111
sag112
a(dp482
g2
g10
(g11
(S'S3'
p483
I0
I1
tp484
Rp485
(I3
S'|'
p486
NNNI3
I1
I0
tp487
bS'red'
p488
tp489
Rp490
sg3
I01
sg4
I01
sg5
g10
(g11
(S'S7'
p491
I0
I1
tp492
Rp493
(I3
S'|'
p494
NNNI7
I1
I0
tp495
bS'#FF3333'
p496
tp497
Rp498
sg6
g10
(g11
(S'S7'
p499
I0
I1
tp500
Rp501
(I3
S'|'
p502
NNNI7
I1
I0
tp503
bS'#808080'
p504
tp505
Rp506
sg7
I27
sg8
g10
(g11
(S'S4'
p507
I0
I1
tp508
Rp509
(I3
S'|'
p510
NNNI4
I1
I0
tp511
bS'gray'
p512
tp513
Rp514
sg9
g10
(g11
(S'S34'
p515
I0
I1
tp516
Rp517
(I3
S'|'
p518
NNNI34
I1
I0
tp519
bS'mass-tower_00009_1100010110~10-cb0'
p520
tp521
Rp522
sg20
I10
sg21
I00
sg22
g111
sag112
a(dp523
g2
g10
(g11
(S'S3'
p524
I0
I1
tp525
Rp526
(I3
S'|'
p527
NNNI3
I1
I0
tp528
bS'red'
p529
tp530
Rp531
sg3
I01
sg4
I01
sg5
g10
(g11
(S'S7'
p532
I0
I1
tp533
Rp534
(I3
S'|'
p535
NNNI7
I1
I0
tp536
bS'#FF3333'
p537
tp538
Rp539
sg6
g10
(g11
(S'S7'
p540
I0
I1
tp541
Rp542
(I3
S'|'
p543
NNNI7
I1
I0
tp544
bS'#3366FF'
p545
tp546
Rp547
sg7
I29
sg8
g10
(g11
(S'S4'
p548
I0
I1
tp549
Rp550
(I3
S'|'
p551
NNNI4
I1
I0
tp552
bS'blue'
p553
tp554
Rp555
sg9
g10
(g11
(S'S34'
p556
I0
I1
tp557
Rp558
(I3
S'|'
p559
NNNI34
I1
I0
tp560
bS'mass-tower_00074_0010111001~10-cb0'
p561
tp562
Rp563
sg20
I11
sg21
I00
sg22
g111
sag112
a(dp564
g2
g10
(g11
(S'S6'
p565
I0
I1
tp566
Rp567
(I3
S'|'
p568
NNNI6
I1
I0
tp569
bS'orange'
p570
tp571
Rp572
sg3
I01
sg4
I01
sg5
g10
(g11
(S'S7'
p573
I0
I1
tp574
Rp575
(I3
S'|'
p576
NNNI7
I1
I0
tp577
bS'#FF7000'
p578
tp579
Rp580
sg6
g10
(g11
(S'S7'
p581
I0
I1
tp582
Rp583
(I3
S'|'
p584
NNNI7
I1
I0
tp585
bS'#00FFFF'
p586
tp587
Rp588
sg7
I31
sg8
g10
(g11
(S'S4'
p589
I0
I1
tp590
Rp591
(I3
S'|'
p592
NNNI4
I1
I0
tp593
bS'cyan'
p594
tp595
Rp596
sg9
g10
(g11
(S'S34'
p597
I0
I1
tp598
Rp599
(I3
S'|'
p600
NNNI34
I1
I0
tp601
bS'mass-tower_00102_0001011011~10-cb0'
p602
tp603
Rp604
sg20
I12
sg21
I00
sg22
g111
sag112
a(dp605
g2
g10
(g11
(S'S4'
p606
I0
I1
tp607
Rp608
(I3
S'|'
p609
NNNI4
I1
I0
tp610
bS'gray'
p611
tp612
Rp613
sg3
I01
sg4
I01
sg5
g10
(g11
(S'S7'
p614
I0
I1
tp615
Rp616
(I3
S'|'
p617
NNNI7
I1
I0
tp618
bS'#808080'
p619
tp620
Rp621
sg6
g10
(g11
(S'S7'
p622
I0
I1
tp623
Rp624
(I3
S'|'
p625
NNNI7
I1
I0
tp626
bS'#FF3333'
p627
tp628
Rp629
sg7
I33
sg8
g10
(g11
(S'S3'
p630
I0
I1
tp631
Rp632
(I3
S'|'
p633
NNNI3
I1
I0
tp634
bS'red'
p635
tp636
Rp637
sg9
g10
(g11
(S'S34'
p638
I0
I1
tp639
Rp640
(I3
S'|'
p641
NNNI34
I1
I0
tp642
bS'mass-tower_00117_0110111000~10-cb0'
p643
tp644
Rp645
sg20
I13
sg21
I00
sg22
g111
sag112
a(dp646
g2
g10
(g11
(S'S7'
p647
I0
I1
tp648
Rp649
(I3
S'|'
p650
NNNI7
I1
I0
tp651
bS'magenta'
p652
tp653
Rp654
sg3
I01
sg4
I01
sg5
g10
(g11
(S'S7'
p655
I0
I1
tp656
Rp657
(I3
S'|'
p658
NNNI7
I1
I0
tp659
bS'#FF00FF'
p660
tp661
Rp662
sg6
g10
(g11
(S'S7'
p663
I0
I1
tp664
Rp665
(I3
S'|'
p666
NNNI7
I1
I0
tp667
bS'#00FF00'
p668
tp669
Rp670
sg7
I35
sg8
g10
(g11
(S'S5'
p671
I0
I1
tp672
Rp673
(I3
S'|'
p674
NNNI5
I1
I0
tp675
bS'green'
p676
tp677
Rp678
sg9
g10
(g11
(S'S34'
p679
I0
I1
tp680
Rp681
(I3
S'|'
p682
NNNI34
I1
I0
tp683
bS'mass-tower_01264_0011111000~10-cb0'
p684
tp685
Rp686
sg20
I14
sg21
I01
sg22
g111
sag112
a(dp687
g2
g10
(g11
(S'S7'
p688
I0
I1
tp689
Rp690
(I3
S'|'
p691
NNNI7
I1
I0
tp692
bS'magenta'
p693
tp694
Rp695
sg3
I01
sg4
I01
sg5
g10
(g11
(S'S7'
p696
I0
I1
tp697
Rp698
(I3
S'|'
p699
NNNI7
I1
I0
tp700
bS'#FF00FF'
p701
tp702
Rp703
sg6
g10
(g11
(S'S7'
p704
I0
I1
tp705
Rp706
(I3
S'|'
p707
NNNI7
I1
I0
tp708
bS'#808080'
p709
tp710
Rp711
sg7
I37
sg8
g10
(g11
(S'S4'
p712
I0
I1
tp713
Rp714
(I3
S'|'
p715
NNNI4
I1
I0
tp716
bS'gray'
p717
tp718
Rp719
sg9
g10
(g11
(S'S34'
p720
I0
I1
tp721
Rp722
(I3
S'|'
p723
NNNI34
I1
I0
tp724
bS'mass-tower_00483_1010010011~10-cb0'
p725
tp726
Rp727
sg20
I15
sg21
I01
sg22
g111
sag112
a(dp728
g2
g10
(g11
(S'S6'
p729
I0
I1
tp730
Rp731
(I3
S'|'
p732
NNNI6
I1
I0
tp733
bS'orange'
p734
tp735
Rp736
sg3
I01
sg4
I01
sg5
g10
(g11
(S'S7'
p737
I0
I1
tp738
Rp739
(I3
S'|'
p740
NNNI7
I1
I0
tp741
bS'#FF7000'
p742
tp743
Rp744
sg6
g10
(g11
(S'S7'
p745
I0
I1
tp746
Rp747
(I3
S'|'
p748
NNNI7
I1
I0
tp749
bS'#3366FF'
p750
tp751
Rp752
sg7
I39
sg8
g10
(g11
(S'S4'
p753
I0
I1
tp754
Rp755
(I3
S'|'
p756
NNNI4
I1
I0
tp757
bS'blue'
p758
tp759
Rp760
sg9
g10
(g11
(S'S34'
p761
I0
I1
tp762
Rp763
(I3
S'|'
p764
NNNI34
I1
I0
tp765
bS'mass-tower_00222_1001101001~10-cb0'
p766
tp767
Rp768
sg20
I16
sg21
I01
sg22
g111
sag112
a(dp769
g2
g10
(g11
(S'S5'
p770
I0
I1
tp771
Rp772
(I3
S'|'
p773
NNNI5
I1
I0
tp774
bS'green'
p775
tp776
Rp777
sg3
I01
sg4
I01
sg5
g10
(g11
(S'S7'
p778
I0
I1
tp779
Rp780
(I3
S'|'
p781
NNNI7
I1
I0
tp782
bS'#00FF00'
p783
tp784
Rp785
sg6
g10
(g11
(S'S7'
p786
I0
I1
tp787
Rp788
(I3
S'|'
p789
NNNI7
I1
I0
tp790
bS'#FF00FF'
p791
tp792
Rp793
sg7
I41
sg8
g10
(g11
(S'S7'
p794
I0
I1
tp795
Rp796
(I3
S'|'
p797
NNNI7
I1
I0
tp798
bS'magenta'
p799
tp800
Rp801
sg9
g10
(g11
(S'S34'
p802
I0
I1
tp803
Rp804
(I3
S'|'
p805
NNNI34
I1
I0
tp806
bS'mass-tower_01441_1100100101~10-cb0'
p807
tp808
Rp809
sg20
I17
sg21
I00
sg22
g111
sag112
a(dp810
g2
g10
(g11
(S'S7'
p811
I0
I1
tp812
Rp813
(I3
S'|'
p814
NNNI7
I1
I0
tp815
bS'magenta'
p816
tp817
Rp818
sg3
I01
sg4
I01
sg5
g10
(g11
(S'S7'
p819
I0
I1
tp820
Rp821
(I3
S'|'
p822
NNNI7
I1
I0
tp823
bS'#FF00FF'
p824
tp825
Rp826
sg6
g10
(g11
(S'S7'
p827
I0
I1
tp828
Rp829
(I3
S'|'
p830
NNNI7
I1
I0
tp831
bS'#FFFF00'
p832
tp833
Rp834
sg7
I43
sg8
g10
(g11
(S'S6'
p835
I0
I1
tp836
Rp837
(I3
S'|'
p838
NNNI6
I1
I0
tp839
bS'yellow'
p840
tp841
Rp842
sg9
g10
(g11
(S'S34'
p843
I0
I1
tp844
Rp845
(I3
S'|'
p846
NNNI34
I1
I0
tp847
bS'mass-tower_00160_0011011100~10-cb0'
p848
tp849
Rp850
sg20
I18
sg21
I01
sg22
g111
sag112
a(dp851
g2
g10
(g11
(S'S7'
p852
I0
I1
tp853
Rp854
(I3
S'|'
p855
NNNI7
I1
I0
tp856
bS'magenta'
p857
tp858
Rp859
sg3
I01
sg4
I01
sg5
g10
(g11
(S'S7'
p860
I0
I1
tp861
Rp862
(I3
S'|'
p863
NNNI7
I1
I0
tp864
bS'#FF00FF'
p865
tp866
Rp867
sg6
g10
(g11
(S'S7'
p868
I0
I1
tp869
Rp870
(I3
S'|'
p871
NNNI7
I1
I0
tp872
bS'#00FFFF'
p873
tp874
Rp875
sg7
I45
sg8
g10
(g11
(S'S4'
p876
I0
I1
tp877
Rp878
(I3
S'|'
p879
NNNI4
I1
I0
tp880
bS'cyan'
p881
tp882
Rp883
sg9
g10
(g11
(S'S34'
p884
I0
I1
tp885
Rp886
(I3
S'|'
p887
NNNI34
I1
I0
tp888
bS'mass-tower_00316_0101010101~10-cb0'
p889
tp890
Rp891
sg20
I19
sg21
I01
sg22
g111
sag112
aS'finished experiment'
p892
a(dp893
g2
Nsg3
I01
sg4
I01
sg5
Nsg6
Nsg7
I48
sg8
Nsg9
g10
(g11
(S'S14'
p894
I0
I1
tp895
Rp896
(I3
S'|'
p897
NNNI14
I1
I0
tp898
bS'stability01491'
p899
tp900
Rp901
sg20
I0
sg21
I00
sg22
S'posttest'
p902
sa(dp903
g2
Nsg3
I01
sg4
I01
sg5
Nsg6
Nsg7
I49
sg8
Nsg9
g10
(g11
(S'S14'
p904
I0
I1
tp905
Rp906
(I3
S'|'
p907
NNNI14
I1
I0
tp908
bS'stability01893'
p909
tp910
Rp911
sg20
I1
sg21
I01
sg22
g902
sa(dp912
g2
Nsg3
I01
sg4
I01
sg5
Nsg6
Nsg7
I50
sg8
Nsg9
g10
(g11
(S'S14'
p913
I0
I1
tp914
Rp915
(I3
S'|'
p916
NNNI14
I1
I0
tp917
bS'stability01178'
p918
tp919
Rp920
sg20
I2
sg21
I01
sg22
g902
sa(dp921
g2
Nsg3
I01
sg4
I01
sg5
Nsg6
Nsg7
I51
sg8
Nsg9
g10
(g11
(S'S14'
p922
I0
I1
tp923
Rp924
(I3
S'|'
p925
NNNI14
I1
I0
tp926
bS'stability01654'
p927
tp928
Rp929
sg20
I3
sg21
I00
sg22
g902
sa(dp930
g2
Nsg3
I01
sg4
I01
sg5
Nsg6
Nsg7
I52
sg8
Nsg9
g10
(g11
(S'S14'
p931
I0
I1
tp932
Rp933
(I3
S'|'
p934
NNNI14
I1
I0
tp935
bS'stability01967'
p936
tp937
Rp938
sg20
I4
sg21
I00
sg22
g902
sa(dp939
g2
Nsg3
I01
sg4
I01
sg5
Nsg6
Nsg7
I53
sg8
Nsg9
g10
(g11
(S'S14'
p940
I0
I1
tp941
Rp942
(I3
S'|'
p943
NNNI14
I1
I0
tp944
bS'stability01023'
p945
tp946
Rp947
sg20
I5
sg21
I01
sg22
g902
saS'finished posttest'
p948
a.